
target/thumbv7em-none-eabihf/debug/minimal:     file format elf32-littlearm


Disassembly of section .text:

08000194 <Reset>:
 8000194:	b580      	push	{r7, lr}
 8000196:	466f      	mov	r7, sp
 8000198:	f000 fb2f 	bl	80007fa <DefaultPreInit>
 800019c:	f64f 30e0 	movw	r0, #64480	; 0xfbe0
 80001a0:	f64f 31fc 	movw	r1, #64508	; 0xfbfc
 80001a4:	f2c2 0000 	movt	r0, #8192	; 0x2000
 80001a8:	f2c2 0100 	movt	r1, #8192	; 0x2000
 80001ac:	f000 fb08 	bl	80007c0 <_ZN2r08zero_bss17h105081cd4831d435E>
 80001b0:	f64f 31e0 	movw	r1, #64480	; 0xfbe0
 80001b4:	f64f 30a8 	movw	r0, #64424	; 0xfba8
 80001b8:	f2c2 0100 	movt	r1, #8192	; 0x2000
 80001bc:	f2c2 0000 	movt	r0, #8192	; 0x2000
 80001c0:	4288      	cmp	r0, r1
 80001c2:	d20e      	bcs.n	80001e2 <Reset+0x4e>
 80001c4:	1d02      	adds	r2, r0, #4
 80001c6:	4291      	cmp	r1, r2
 80001c8:	bf88      	it	hi
 80001ca:	460a      	movhi	r2, r1
 80001cc:	43c1      	mvns	r1, r0
 80001ce:	4411      	add	r1, r2
 80001d0:	f021 0103 	bic.w	r1, r1, #3
 80001d4:	1d0a      	adds	r2, r1, #4
 80001d6:	f242 7168 	movw	r1, #10088	; 0x2768
 80001da:	f6c0 0100 	movt	r1, #2048	; 0x800
 80001de:	f001 fecf 	bl	8001f80 <__aeabi_memcpy4>
 80001e2:	f64e 5088 	movw	r0, #60808	; 0xed88
 80001e6:	f2ce 0000 	movt	r0, #57344	; 0xe000
 80001ea:	6801      	ldr	r1, [r0, #0]
 80001ec:	f441 0170 	orr.w	r1, r1, #15728640	; 0xf00000
 80001f0:	6001      	str	r1, [r0, #0]
 80001f2:	f000 fafd 	bl	80007f0 <ResetTrampoline>

080001f6 <_ZN4core3ops8function6FnOnce9call_once17h571503ffcdae0e87E>:
 80001f6:	f64f 30e0 	movw	r0, #64480	; 0xfbe0
 80001fa:	2101      	movs	r1, #1
 80001fc:	f2c2 0000 	movt	r0, #8192	; 0x2000
 8000200:	6800      	ldr	r0, [r0, #0]
 8000202:	f3bf 8f5f 	dmb	sy
 8000206:	7081      	strb	r1, [r0, #2]
 8000208:	f24e 2000 	movw	r0, #57856	; 0xe200
 800020c:	f2ce 0000 	movt	r0, #57344	; 0xe000
 8000210:	f04f 5100 	mov.w	r1, #536870912	; 0x20000000
 8000214:	6001      	str	r1, [r0, #0]
 8000216:	4770      	bx	lr

08000218 <_ZN4core3ops8function6FnOnce9call_once17h6d45df7113337e6eE>:
 8000218:	f64f 30e4 	movw	r0, #64484	; 0xfbe4
 800021c:	2101      	movs	r1, #1
 800021e:	f2c2 0000 	movt	r0, #8192	; 0x2000
 8000222:	6800      	ldr	r0, [r0, #0]
 8000224:	f3bf 8f5f 	dmb	sy
 8000228:	7081      	strb	r1, [r0, #2]
 800022a:	f24e 2000 	movw	r0, #57856	; 0xe200
 800022e:	f2ce 0000 	movt	r0, #57344	; 0xe000
 8000232:	f04f 4180 	mov.w	r1, #1073741824	; 0x40000000
 8000236:	6001      	str	r1, [r0, #0]
 8000238:	4770      	bx	lr

0800023a <_ZN7minimal3app4idle17h9a393c80d4a10066E>:
 800023a:	b580      	push	{r7, lr}
 800023c:	466f      	mov	r7, sp
 800023e:	f242 00ab 	movw	r0, #8363	; 0x20ab
 8000242:	2105      	movs	r1, #5
 8000244:	f6c0 0000 	movt	r0, #2048	; 0x800
 8000248:	f000 fa37 	bl	80006ba <_ZN20cortex_m_semihosting6export11hstdout_str17h7e18a264f1a302deE>
 800024c:	f04f 0106 	mov.w	r1, #6
 8000250:	f04f 0202 	mov.w	r2, #2
 8000254:	f04f 0304 	mov.w	r3, #4
 8000258:	f04f 0406 	mov.w	r4, #6
 800025c:	2000      	movs	r0, #0
 800025e:	f000 fa1e 	bl	800069e <_ZN20cortex_m_semihosting5debug4exit17ha0eb900eab0fd0ddE>
 8000262:	e7fb      	b.n	800025c <_ZN7minimal3app4idle17h9a393c80d4a10066E+0x22>

08000264 <TIM3>:
 8000264:	b5b0      	push	{r4, r5, r7, lr}
 8000266:	af02      	add	r7, sp, #8
 8000268:	f000 fb25 	bl	80008b6 <__basepri_r>
 800026c:	4604      	mov	r4, r0
 800026e:	f64f 30e0 	movw	r0, #64480	; 0xfbe0
 8000272:	f2c2 0000 	movt	r0, #8192	; 0x2000
 8000276:	6805      	ldr	r5, [r0, #0]
 8000278:	7868      	ldrb	r0, [r5, #1]
 800027a:	b380      	cbz	r0, 80002de <TIM3+0x7a>
 800027c:	1ca8      	adds	r0, r5, #2
 800027e:	2100      	movs	r1, #0
 8000280:	e8d0 2f4f 	ldrexb	r2, [r0]
 8000284:	2a01      	cmp	r2, #1
 8000286:	d128      	bne.n	80002da <TIM3+0x76>
 8000288:	e8c0 1f42 	strexb	r2, r1, [r0]
 800028c:	2a00      	cmp	r2, #0
 800028e:	d1f7      	bne.n	8000280 <TIM3+0x1c>
 8000290:	f3bf 8f5f 	dmb	sy
 8000294:	7828      	ldrb	r0, [r5, #0]
 8000296:	bb38      	cbnz	r0, 80002e8 <TIM3+0x84>
 8000298:	f242 00b0 	movw	r0, #8368	; 0x20b0
 800029c:	2118      	movs	r1, #24
 800029e:	f6c0 0000 	movt	r0, #2048	; 0x800
 80002a2:	f000 fa0a 	bl	80006ba <_ZN20cortex_m_semihosting6export11hstdout_str17h7e18a264f1a302deE>
 80002a6:	f242 00c8 	movw	r0, #8392	; 0x20c8
 80002aa:	2117      	movs	r1, #23
 80002ac:	f6c0 0000 	movt	r0, #2048	; 0x800
 80002b0:	bf00      	nop
 80002b2:	f000 fa02 	bl	80006ba <_ZN20cortex_m_semihosting6export11hstdout_str17h7e18a264f1a302deE>
 80002b6:	2001      	movs	r0, #1
 80002b8:	f805 0b01 	strb.w	r0, [r5], #1
 80002bc:	2000      	movs	r0, #0
 80002be:	f3bf 8f5f 	dmb	sy
 80002c2:	7028      	strb	r0, [r5, #0]
 80002c4:	f242 1030 	movw	r0, #8496	; 0x2130
 80002c8:	f6c0 0000 	movt	r0, #2048	; 0x800
 80002cc:	68c1      	ldr	r1, [r0, #12]
 80002ce:	f240 10f7 	movw	r0, #503	; 0x1f7
 80002d2:	f6c0 0000 	movt	r0, #2048	; 0x800
 80002d6:	4788      	blx	r1
 80002d8:	e001      	b.n	80002de <TIM3+0x7a>
 80002da:	f3bf 8f2f 	clrex
 80002de:	4620      	mov	r0, r4
 80002e0:	e8bd 40b0 	ldmia.w	sp!, {r4, r5, r7, lr}
 80002e4:	f000 baeb 	b.w	80008be <__basepri_w>
 80002e8:	f242 00e0 	movw	r0, #8416	; 0x20e0
 80002ec:	f6c0 0000 	movt	r0, #2048	; 0x800
 80002f0:	f001 fcbb 	bl	8001c6a <_ZN4core9panicking11panic_const28panic_const_async_fn_resumed17h29f670e6743c79b2E>

080002f4 <TIM4>:
 80002f4:	b5b0      	push	{r4, r5, r7, lr}
 80002f6:	af02      	add	r7, sp, #8
 80002f8:	f000 fadd 	bl	80008b6 <__basepri_r>
 80002fc:	4604      	mov	r4, r0
 80002fe:	f64f 30e4 	movw	r0, #64484	; 0xfbe4
 8000302:	f2c2 0000 	movt	r0, #8192	; 0x2000
 8000306:	6805      	ldr	r5, [r0, #0]
 8000308:	7868      	ldrb	r0, [r5, #1]
 800030a:	b340      	cbz	r0, 800035e <TIM4+0x6a>
 800030c:	1ca8      	adds	r0, r5, #2
 800030e:	2100      	movs	r1, #0
 8000310:	e8d0 2f4f 	ldrexb	r2, [r0]
 8000314:	2a01      	cmp	r2, #1
 8000316:	d120      	bne.n	800035a <TIM4+0x66>
 8000318:	e8c0 1f42 	strexb	r2, r1, [r0]
 800031c:	2a00      	cmp	r2, #0
 800031e:	d1f7      	bne.n	8000310 <TIM4+0x1c>
 8000320:	f3bf 8f5f 	dmb	sy
 8000324:	7828      	ldrb	r0, [r5, #0]
 8000326:	b9f8      	cbnz	r0, 8000368 <TIM4+0x74>
 8000328:	f242 00f0 	movw	r0, #8432	; 0x20f0
 800032c:	210e      	movs	r1, #14
 800032e:	f6c0 0000 	movt	r0, #2048	; 0x800
 8000332:	f000 f9c2 	bl	80006ba <_ZN20cortex_m_semihosting6export11hstdout_str17h7e18a264f1a302deE>
 8000336:	2001      	movs	r0, #1
 8000338:	f805 0b01 	strb.w	r0, [r5], #1
 800033c:	2000      	movs	r0, #0
 800033e:	f3bf 8f5f 	dmb	sy
 8000342:	7028      	strb	r0, [r5, #0]
 8000344:	f242 1030 	movw	r0, #8496	; 0x2130
 8000348:	f6c0 0000 	movt	r0, #2048	; 0x800
 800034c:	68c1      	ldr	r1, [r0, #12]
 800034e:	f240 2019 	movw	r0, #537	; 0x219
 8000352:	f6c0 0000 	movt	r0, #2048	; 0x800
 8000356:	4788      	blx	r1
 8000358:	e001      	b.n	800035e <TIM4+0x6a>
 800035a:	f3bf 8f2f 	clrex
 800035e:	4620      	mov	r0, r4
 8000360:	e8bd 40b0 	ldmia.w	sp!, {r4, r5, r7, lr}
 8000364:	f000 baab 	b.w	80008be <__basepri_w>
 8000368:	f242 00e0 	movw	r0, #8416	; 0x20e0
 800036c:	f6c0 0000 	movt	r0, #2048	; 0x800
 8000370:	f001 fc7b 	bl	8001c6a <_ZN4core9panicking11panic_const28panic_const_async_fn_resumed17h29f670e6743c79b2E>

08000374 <main>:
 8000374:	b580      	push	{r7, lr}
 8000376:	466f      	mov	r7, sp
 8000378:	b088      	sub	sp, #32
 800037a:	f000 fa90 	bl	800089e <__cpsid>
 800037e:	f64f 30f6 	movw	r0, #64502	; 0xfbf6
 8000382:	2101      	movs	r1, #1
 8000384:	f2c2 0000 	movt	r0, #8192	; 0x2000
 8000388:	f04f 5200 	mov.w	r2, #536870912	; 0x20000000
 800038c:	7001      	strb	r1, [r0, #0]
 800038e:	f24e 401d 	movw	r0, #58397	; 0xe41d
 8000392:	f2ce 0000 	movt	r0, #57344	; 0xe000
 8000396:	21d0      	movs	r1, #208	; 0xd0
 8000398:	7001      	strb	r1, [r0, #0]
 800039a:	f24e 1100 	movw	r1, #57600	; 0xe100
 800039e:	f2ce 0100 	movt	r1, #57344	; 0xe000
 80003a2:	f64f 34fc 	movw	r4, #64508	; 0xfbfc
 80003a6:	600a      	str	r2, [r1, #0]
 80003a8:	22c0      	movs	r2, #192	; 0xc0
 80003aa:	7042      	strb	r2, [r0, #1]
 80003ac:	f04f 4080 	mov.w	r0, #1073741824	; 0x40000000
 80003b0:	6008      	str	r0, [r1, #0]
 80003b2:	f64f 31e0 	movw	r1, #64480	; 0xfbe0
 80003b6:	2000      	movs	r0, #0
 80003b8:	f2c2 0100 	movt	r1, #8192	; 0x2000
 80003bc:	466a      	mov	r2, sp
 80003be:	f88d 0002 	strb.w	r0, [sp, #2]
 80003c2:	f8ad 0000 	strh.w	r0, [sp]
 80003c6:	f2c2 0400 	movt	r4, #8192	; 0x2000
 80003ca:	600a      	str	r2, [r1, #0]
 80003cc:	a901      	add	r1, sp, #4
 80003ce:	f88d 0006 	strb.w	r0, [sp, #6]
 80003d2:	f8ad 0004 	strh.w	r0, [sp, #4]
 80003d6:	f64f 30e4 	movw	r0, #64484	; 0xfbe4
 80003da:	f2c2 0000 	movt	r0, #8192	; 0x2000
 80003de:	6001      	str	r1, [r0, #0]
 80003e0:	f64f 30a8 	movw	r0, #64424	; 0xfba8
 80003e4:	f2c2 0000 	movt	r0, #8192	; 0x2000
 80003e8:	42a0      	cmp	r0, r4
 80003ea:	d903      	bls.n	80003f4 <main+0x80>
 80003ec:	f000 fa5b 	bl	80008a6 <__msp_r>
 80003f0:	42a0      	cmp	r0, r4
 80003f2:	d903      	bls.n	80003fc <main+0x88>
 80003f4:	f000 f815 	bl	8000422 <_ZN7minimal3app4main21__rtic_init_resources17h769debaac0420209E>
 80003f8:	f7ff ff1f 	bl	800023a <_ZN7minimal3app4idle17h9a393c80d4a10066E>
 80003fc:	2101      	movs	r1, #1
 80003fe:	2000      	movs	r0, #0
 8000400:	9103      	str	r1, [sp, #12]
 8000402:	f242 1128 	movw	r1, #8488	; 0x2128
 8000406:	f6c0 0100 	movt	r1, #2048	; 0x800
 800040a:	9006      	str	r0, [sp, #24]
 800040c:	9005      	str	r0, [sp, #20]
 800040e:	2004      	movs	r0, #4
 8000410:	9102      	str	r1, [sp, #8]
 8000412:	f242 01e0 	movw	r1, #8416	; 0x20e0
 8000416:	9004      	str	r0, [sp, #16]
 8000418:	a802      	add	r0, sp, #8
 800041a:	f6c0 0100 	movt	r1, #2048	; 0x800
 800041e:	f000 fdd7 	bl	8000fd0 <_ZN4core9panicking9panic_fmt17ha28037c9d7b27c20E>

08000422 <_ZN7minimal3app4main21__rtic_init_resources17h769debaac0420209E>:
 8000422:	b5f0      	push	{r4, r5, r6, r7, lr}
 8000424:	af03      	add	r7, sp, #12
 8000426:	e92d 0b00 	stmdb	sp!, {r8, r9, fp}
 800042a:	f64f 30f4 	movw	r0, #64500	; 0xfbf4
 800042e:	2101      	movs	r1, #1
 8000430:	f2c2 0000 	movt	r0, #8192	; 0x2000
 8000434:	7001      	strb	r1, [r0, #0]
 8000436:	2000      	movs	r0, #0
 8000438:	f6c0 0003 	movt	r0, #2051	; 0x803
 800043c:	6801      	ldr	r1, [r0, #0]
 800043e:	1c4a      	adds	r2, r1, #1
 8000440:	f000 80b1 	beq.w	80005a6 <_ZN7minimal3app4main21__rtic_init_resources17h769debaac0420209E+0x184>
 8000444:	1809      	adds	r1, r1, r0
 8000446:	f080 8110 	bcs.w	800066a <_ZN7minimal3app4main21__rtic_init_resources17h769debaac0420209E+0x248>
 800044a:	078a      	lsls	r2, r1, #30
 800044c:	f040 80f4 	bne.w	8000638 <_ZN7minimal3app4main21__rtic_init_resources17h769debaac0420209E+0x216>
 8000450:	6809      	ldr	r1, [r1, #0]
 8000452:	3101      	adds	r1, #1
 8000454:	f000 80a7 	beq.w	80005a6 <_ZN7minimal3app4main21__rtic_init_resources17h769debaac0420209E+0x184>
 8000458:	4601      	mov	r1, r0
 800045a:	0780      	lsls	r0, r0, #30
 800045c:	f040 80ec 	bne.w	8000638 <_ZN7minimal3app4main21__rtic_init_resources17h769debaac0420209E+0x216>
 8000460:	6808      	ldr	r0, [r1, #0]
 8000462:	1840      	adds	r0, r0, r1
 8000464:	f080 80ef 	bcs.w	8000646 <_ZN7minimal3app4main21__rtic_init_resources17h769debaac0420209E+0x224>
 8000468:	2800      	cmp	r0, #0
 800046a:	f000 80e5 	beq.w	8000638 <_ZN7minimal3app4main21__rtic_init_resources17h769debaac0420209E+0x216>
 800046e:	f010 0203 	ands.w	r2, r0, #3
 8000472:	f040 80e1 	bne.w	8000638 <_ZN7minimal3app4main21__rtic_init_resources17h769debaac0420209E+0x216>
 8000476:	6802      	ldr	r2, [r0, #0]
 8000478:	3201      	adds	r2, #1
 800047a:	d1ed      	bne.n	8000458 <_ZN7minimal3app4main21__rtic_init_resources17h769debaac0420209E+0x36>
 800047c:	f111 0c04 	adds.w	ip, r1, #4
 8000480:	f080 80f9 	bcs.w	8000676 <_ZN7minimal3app4main21__rtic_init_resources17h769debaac0420209E+0x254>
 8000484:	f1bc 0f00 	cmp.w	ip, #0
 8000488:	f000 80d6 	beq.w	8000638 <_ZN7minimal3app4main21__rtic_init_resources17h769debaac0420209E+0x216>
 800048c:	f8dc 0000 	ldr.w	r0, [ip]
 8000490:	f64b 61ef 	movw	r1, #48879	; 0xbeef
 8000494:	f6cd 61ad 	movt	r1, #57005	; 0xdead
 8000498:	4288      	cmp	r0, r1
 800049a:	d13b      	bne.n	8000514 <_ZN7minimal3app4main21__rtic_init_resources17h769debaac0420209E+0xf2>
 800049c:	f243 0e02 	movw	lr, #12290	; 0x3002
 80004a0:	f2c6 0e00 	movt	lr, #24576	; 0x6000
 80004a4:	f89e 0000 	ldrb.w	r0, [lr]
 80004a8:	b388      	cbz	r0, 800050e <_ZN7minimal3app4main21__rtic_init_resources17h769debaac0420209E+0xec>
 80004aa:	f244 0300 	movw	r3, #16384	; 0x4000
 80004ae:	f24c 0101 	movw	r1, #49153	; 0xc001
 80004b2:	f04f 0900 	mov.w	r9, #0
 80004b6:	f2c6 0300 	movt	r3, #24576	; 0x6000
 80004ba:	f04f 0801 	mov.w	r8, #1
 80004be:	f6c9 71ff 	movt	r1, #40959	; 0x9fff
 80004c2:	2500      	movs	r5, #0
 80004c4:	461e      	mov	r6, r3
 80004c6:	2400      	movs	r4, #0
 80004c8:	f856 0b01 	ldr.w	r0, [r6], #1
 80004cc:	40a8      	lsls	r0, r5
 80004ce:	3508      	adds	r5, #8
 80004d0:	4304      	orrs	r4, r0
 80004d2:	2d20      	cmp	r5, #32
 80004d4:	d1f8      	bne.n	80004c8 <_ZN7minimal3app4main21__rtic_init_resources17h769debaac0420209E+0xa6>
 80004d6:	781d      	ldrb	r5, [r3, #0]
 80004d8:	b155      	cbz	r5, 80004f0 <_ZN7minimal3app4main21__rtic_init_resources17h769debaac0420209E+0xce>
 80004da:	2600      	movs	r6, #0
 80004dc:	19a0      	adds	r0, r4, r6
 80004de:	f080 80a5 	bcs.w	800062c <_ZN7minimal3app4main21__rtic_init_resources17h769debaac0420209E+0x20a>
 80004e2:	5cf2      	ldrb	r2, [r6, r3]
 80004e4:	7002      	strb	r2, [r0, #0]
 80004e6:	18f0      	adds	r0, r6, r3
 80004e8:	1846      	adds	r6, r0, r1
 80004ea:	42ae      	cmp	r6, r5
 80004ec:	d1f6      	bne.n	80004dc <_ZN7minimal3app4main21__rtic_init_resources17h769debaac0420209E+0xba>
 80004ee:	e000      	b.n	80004f2 <_ZN7minimal3app4main21__rtic_init_resources17h769debaac0420209E+0xd0>
 80004f0:	2500      	movs	r5, #0
 80004f2:	1960      	adds	r0, r4, r5
 80004f4:	f080 80ad 	bcs.w	8000652 <_ZN7minimal3app4main21__rtic_init_resources17h769debaac0420209E+0x230>
 80004f8:	fa58 f989 	uxtab	r9, r8, r9
 80004fc:	fa5f f489 	uxtb.w	r4, r9
 8000500:	454c      	cmp	r4, r9
 8000502:	f040 80ac 	bne.w	800065e <_ZN7minimal3app4main21__rtic_init_resources17h769debaac0420209E+0x23c>
 8000506:	f89e 0000 	ldrb.w	r0, [lr]
 800050a:	42a0      	cmp	r0, r4
 800050c:	d1d9      	bne.n	80004c2 <_ZN7minimal3app4main21__rtic_init_resources17h769debaac0420209E+0xa0>
 800050e:	2000      	movs	r0, #0
 8000510:	f88e 0000 	strb.w	r0, [lr]
 8000514:	f11c 0004 	adds.w	r0, ip, #4
 8000518:	f080 80b3 	bcs.w	8000682 <_ZN7minimal3app4main21__rtic_init_resources17h769debaac0420209E+0x260>
 800051c:	4600      	mov	r0, r0
 800051e:	f64f 71f8 	movw	r1, #65528	; 0xfff8
 8000522:	f2c2 0100 	movt	r1, #8192	; 0x2000
 8000526:	f381 8808 	msr	MSP, r1
 800052a:	f24f 13f1 	movw	r3, #61937	; 0xf1f1
 800052e:	f2cf 13f1 	movt	r3, #61937	; 0xf1f1
 8000532:	6841      	ldr	r1, [r0, #4]
 8000534:	4299      	cmp	r1, r3
 8000536:	d002      	beq.n	800053e <_ZN7minimal3app4main21__rtic_init_resources17h769debaac0420209E+0x11c>
 8000538:	b402      	push	{r1}
 800053a:	1d00      	adds	r0, r0, #4
 800053c:	e7f9      	b.n	8000532 <_ZN7minimal3app4main21__rtic_init_resources17h769debaac0420209E+0x110>
 800053e:	1d00      	adds	r0, r0, #4
 8000540:	1d00      	adds	r0, r0, #4
 8000542:	6801      	ldr	r1, [r0, #0]
 8000544:	b402      	push	{r1}
 8000546:	1d00      	adds	r0, r0, #4
 8000548:	6801      	ldr	r1, [r0, #0]
 800054a:	1d00      	adds	r0, r0, #4
 800054c:	6802      	ldr	r2, [r0, #0]
 800054e:	1d00      	adds	r0, r0, #4
 8000550:	6803      	ldr	r3, [r0, #0]
 8000552:	1d00      	adds	r0, r0, #4
 8000554:	6804      	ldr	r4, [r0, #0]
 8000556:	1d00      	adds	r0, r0, #4
 8000558:	6805      	ldr	r5, [r0, #0]
 800055a:	1d00      	adds	r0, r0, #4
 800055c:	6806      	ldr	r6, [r0, #0]
 800055e:	1d00      	adds	r0, r0, #4
 8000560:	6807      	ldr	r7, [r0, #0]
 8000562:	1d00      	adds	r0, r0, #4
 8000564:	f8d0 8000 	ldr.w	r8, [r0]
 8000568:	1d00      	adds	r0, r0, #4
 800056a:	f8d0 9000 	ldr.w	r9, [r0]
 800056e:	1d00      	adds	r0, r0, #4
 8000570:	f8d0 a000 	ldr.w	sl, [r0]
 8000574:	1d00      	adds	r0, r0, #4
 8000576:	f8d0 b000 	ldr.w	fp, [r0]
 800057a:	1d00      	adds	r0, r0, #4
 800057c:	f8d0 c000 	ldr.w	ip, [r0]
 8000580:	1d00      	adds	r0, r0, #4
 8000582:	1d00      	adds	r0, r0, #4
 8000584:	f8d0 e000 	ldr.w	lr, [r0]
 8000588:	bc01      	pop	{r0}
 800058a:	46f7      	mov	pc, lr
 800058c:	f11d 0d38 	adds.w	sp, sp, #56	; 0x38
 8000590:	f11d 0d08 	adds.w	sp, sp, #8
 8000594:	bc0f      	pop	{r0, r1, r2, r3}
 8000596:	f11d 0d04 	adds.w	sp, sp, #4
 800059a:	bc10      	pop	{r4}
 800059c:	f11d 0d10 	adds.w	sp, sp, #16
 80005a0:	f11d 0d40 	adds.w	sp, sp, #64	; 0x40
 80005a4:	46a7      	mov	pc, r4
 80005a6:	f242 00a6 	movw	r0, #8358	; 0x20a6
 80005aa:	2105      	movs	r1, #5
 80005ac:	f6c0 0000 	movt	r0, #2048	; 0x800
 80005b0:	f000 f883 	bl	80006ba <_ZN20cortex_m_semihosting6export11hstdout_str17h7e18a264f1a302deE>
 80005b4:	f64f 30e0 	movw	r0, #64480	; 0xfbe0
 80005b8:	f2c2 0000 	movt	r0, #8192	; 0x2000
 80005bc:	6800      	ldr	r0, [r0, #0]
 80005be:	1c41      	adds	r1, r0, #1
 80005c0:	e8d1 2f4f 	ldrexb	r2, [r1]
 80005c4:	b94a      	cbnz	r2, 80005da <_ZN7minimal3app4main21__rtic_init_resources17h769debaac0420209E+0x1b8>
 80005c6:	2201      	movs	r2, #1
 80005c8:	f3bf 8f5f 	dmb	sy
 80005cc:	e8c1 2f43 	strexb	r3, r2, [r1]
 80005d0:	b1db      	cbz	r3, 800060a <_ZN7minimal3app4main21__rtic_init_resources17h769debaac0420209E+0x1e8>
 80005d2:	e8d1 3f4f 	ldrexb	r3, [r1]
 80005d6:	2b00      	cmp	r3, #0
 80005d8:	d0f8      	beq.n	80005cc <_ZN7minimal3app4main21__rtic_init_resources17h769debaac0420209E+0x1aa>
 80005da:	f3bf 8f2f 	clrex
 80005de:	f04f 0106 	mov.w	r1, #6
 80005e2:	f04f 0202 	mov.w	r2, #2
 80005e6:	f04f 0304 	mov.w	r3, #4
 80005ea:	f04f 0406 	mov.w	r4, #6
 80005ee:	f04f 060c 	mov.w	r6, #12
 80005f2:	f04f 0809 	mov.w	r8, #9
 80005f6:	f04f 0906 	mov.w	r9, #6
 80005fa:	f04f 0c02 	mov.w	ip, #2
 80005fe:	e8bd 0b00 	ldmia.w	sp!, {r8, r9, fp}
 8000602:	e8bd 40f0 	ldmia.w	sp!, {r4, r5, r6, r7, lr}
 8000606:	f000 b94c 	b.w	80008a2 <__cpsie>
 800060a:	2100      	movs	r1, #0
 800060c:	f3bf 8f5f 	dmb	sy
 8000610:	f800 1b02 	strb.w	r1, [r0], #2
 8000614:	2101      	movs	r1, #1
 8000616:	f3bf 8f5f 	dmb	sy
 800061a:	7001      	strb	r1, [r0, #0]
 800061c:	f24e 2000 	movw	r0, #57856	; 0xe200
 8000620:	f2ce 0000 	movt	r0, #57344	; 0xe000
 8000624:	f04f 5100 	mov.w	r1, #536870912	; 0x20000000
 8000628:	6001      	str	r1, [r0, #0]
 800062a:	e7d8      	b.n	80005de <_ZN7minimal3app4main21__rtic_init_resources17h769debaac0420209E+0x1bc>
 800062c:	f242 0044 	movw	r0, #8260	; 0x2044
 8000630:	f6c0 0000 	movt	r0, #2048	; 0x800
 8000634:	f001 faf3 	bl	8001c1e <_ZN4core9panicking11panic_const24panic_const_add_overflow17hfaa9a98b98f8d5acE>
 8000638:	f641 709c 	movw	r0, #8092	; 0x1f9c
 800063c:	216e      	movs	r1, #110	; 0x6e
 800063e:	f6c0 0000 	movt	r0, #2048	; 0x800
 8000642:	f000 fce7 	bl	8001014 <_ZN4core9panicking14panic_nounwind17h080f20ecd2cd3cd6E>
 8000646:	f242 0064 	movw	r0, #8292	; 0x2064
 800064a:	f6c0 0000 	movt	r0, #2048	; 0x800
 800064e:	f001 fae6 	bl	8001c1e <_ZN4core9panicking11panic_const24panic_const_add_overflow17hfaa9a98b98f8d5acE>
 8000652:	f242 0024 	movw	r0, #8228	; 0x2024
 8000656:	f6c0 0000 	movt	r0, #2048	; 0x800
 800065a:	f001 fae0 	bl	8001c1e <_ZN4core9panicking11panic_const24panic_const_add_overflow17hfaa9a98b98f8d5acE>
 800065e:	f242 0034 	movw	r0, #8244	; 0x2034
 8000662:	f6c0 0000 	movt	r0, #2048	; 0x800
 8000666:	f001 fada 	bl	8001c1e <_ZN4core9panicking11panic_const24panic_const_add_overflow17hfaa9a98b98f8d5acE>
 800066a:	f242 0054 	movw	r0, #8276	; 0x2054
 800066e:	f6c0 0000 	movt	r0, #2048	; 0x800
 8000672:	f001 fad4 	bl	8001c1e <_ZN4core9panicking11panic_const24panic_const_add_overflow17hfaa9a98b98f8d5acE>
 8000676:	f242 0074 	movw	r0, #8308	; 0x2074
 800067a:	f6c0 0000 	movt	r0, #2048	; 0x800
 800067e:	f001 face 	bl	8001c1e <_ZN4core9panicking11panic_const24panic_const_add_overflow17hfaa9a98b98f8d5acE>
 8000682:	f242 0084 	movw	r0, #8324	; 0x2084
 8000686:	f6c0 0000 	movt	r0, #2048	; 0x800
 800068a:	f001 fac8 	bl	8001c1e <_ZN4core9panicking11panic_const24panic_const_add_overflow17hfaa9a98b98f8d5acE>

0800068e <_ZN4rtic6export8executor11waker_clone17hf61b76dde920d23cE>:
 800068e:	4601      	mov	r1, r0
 8000690:	f242 1030 	movw	r0, #8496	; 0x2130
 8000694:	f6c0 0000 	movt	r0, #2048	; 0x800
 8000698:	4770      	bx	lr

0800069a <_ZN4rtic6export8executor10waker_wake17h7a8022afb36fa340E>:
 800069a:	4700      	bx	r0

0800069c <_ZN4rtic6export8executor10waker_drop17hf89f847c917cf887E>:
 800069c:	4770      	bx	lr

0800069e <_ZN20cortex_m_semihosting5debug4exit17ha0eb900eab0fd0ddE>:
 800069e:	2123      	movs	r1, #35	; 0x23
 80006a0:	2800      	cmp	r0, #0
 80006a2:	f2c0 0102 	movt	r1, #2
 80006a6:	f04f 0018 	mov.w	r0, #24
 80006aa:	f101 0103 	add.w	r1, r1, #3
 80006ae:	bf1c      	itt	ne
 80006b0:	2123      	movne	r1, #35	; 0x23
 80006b2:	f2c0 0102 	movtne	r1, #2
 80006b6:	f000 b86a 	b.w	800078e <__c_m_sh_syscall>

080006ba <_ZN20cortex_m_semihosting6export11hstdout_str17h7e18a264f1a302deE>:
 80006ba:	b5f0      	push	{r4, r5, r6, r7, lr}
 80006bc:	af03      	add	r7, sp, #12
 80006be:	e92d 0b00 	stmdb	sp!, {r8, r9, fp}
 80006c2:	b084      	sub	sp, #16
 80006c4:	4689      	mov	r9, r1
 80006c6:	4606      	mov	r6, r0
 80006c8:	f000 f8f0 	bl	80008ac <__primask_r>
 80006cc:	4680      	mov	r8, r0
 80006ce:	f000 f8e6 	bl	800089e <__cpsid>
 80006d2:	f64f 35e8 	movw	r5, #64488	; 0xfbe8
 80006d6:	f2c2 0500 	movt	r5, #8192	; 0x2000
 80006da:	6828      	ldr	r0, [r5, #0]
 80006dc:	b108      	cbz	r0, 80006e2 <_ZN20cortex_m_semihosting6export11hstdout_str17h7e18a264f1a302deE+0x28>
 80006de:	6868      	ldr	r0, [r5, #4]
 80006e0:	e011      	b.n	8000706 <_ZN20cortex_m_semihosting6export11hstdout_str17h7e18a264f1a302deE+0x4c>
 80006e2:	2003      	movs	r0, #3
 80006e4:	a901      	add	r1, sp, #4
 80006e6:	9003      	str	r0, [sp, #12]
 80006e8:	2004      	movs	r0, #4
 80006ea:	9002      	str	r0, [sp, #8]
 80006ec:	f242 10e2 	movw	r0, #8674	; 0x21e2
 80006f0:	f6c0 0000 	movt	r0, #2048	; 0x800
 80006f4:	2401      	movs	r4, #1
 80006f6:	9001      	str	r0, [sp, #4]
 80006f8:	2001      	movs	r0, #1
 80006fa:	f000 f848 	bl	800078e <__c_m_sh_syscall>
 80006fe:	1c41      	adds	r1, r0, #1
 8000700:	d006      	beq.n	8000710 <_ZN20cortex_m_semihosting6export11hstdout_str17h7e18a264f1a302deE+0x56>
 8000702:	e9c5 4000 	strd	r4, r0, [r5]
 8000706:	4631      	mov	r1, r6
 8000708:	464a      	mov	r2, r9
 800070a:	f000 f80b 	bl	8000724 <_ZN20cortex_m_semihosting3hio9write_all17hb5548394c514ef18E>
 800070e:	4604      	mov	r4, r0
 8000710:	ea5f 70c8 	movs.w	r0, r8, lsl #31
 8000714:	bf08      	it	eq
 8000716:	f000 f8c4 	bleq	80008a2 <__cpsie>
 800071a:	4620      	mov	r0, r4
 800071c:	b004      	add	sp, #16
 800071e:	e8bd 0b00 	ldmia.w	sp!, {r8, r9, fp}
 8000722:	bdf0      	pop	{r4, r5, r6, r7, pc}

08000724 <_ZN20cortex_m_semihosting3hio9write_all17hb5548394c514ef18E>:
 8000724:	b5f0      	push	{r4, r5, r6, r7, lr}
 8000726:	af03      	add	r7, sp, #12
 8000728:	e92d 0b00 	stmdb	sp!, {r8, r9, fp}
 800072c:	b084      	sub	sp, #16
 800072e:	b312      	cbz	r2, 8000776 <_ZN20cortex_m_semihosting3hio9write_all17hb5548394c514ef18E+0x52>
 8000730:	ab01      	add	r3, sp, #4
 8000732:	460c      	mov	r4, r1
 8000734:	c307      	stmia	r3!, {r0, r1, r2}
 8000736:	a901      	add	r1, sp, #4
 8000738:	4681      	mov	r9, r0
 800073a:	2005      	movs	r0, #5
 800073c:	4615      	mov	r5, r2
 800073e:	f000 f826 	bl	800078e <__c_m_sh_syscall>
 8000742:	1e41      	subs	r1, r0, #1
 8000744:	42a9      	cmp	r1, r5
 8000746:	d212      	bcs.n	800076e <_ZN20cortex_m_semihosting3hio9write_all17hb5548394c514ef18E+0x4a>
 8000748:	f10d 0804 	add.w	r8, sp, #4
 800074c:	f1b0 3fff 	cmp.w	r0, #4294967295	; 0xffffffff
 8000750:	dd16      	ble.n	8000780 <_ZN20cortex_m_semihosting3hio9write_all17hb5548394c514ef18E+0x5c>
 8000752:	4606      	mov	r6, r0
 8000754:	9003      	str	r0, [sp, #12]
 8000756:	1a28      	subs	r0, r5, r0
 8000758:	4641      	mov	r1, r8
 800075a:	4404      	add	r4, r0
 800075c:	2005      	movs	r0, #5
 800075e:	e9cd 9401 	strd	r9, r4, [sp, #4]
 8000762:	f000 f814 	bl	800078e <__c_m_sh_syscall>
 8000766:	1e41      	subs	r1, r0, #1
 8000768:	4635      	mov	r5, r6
 800076a:	42b1      	cmp	r1, r6
 800076c:	d3ee      	bcc.n	800074c <_ZN20cortex_m_semihosting3hio9write_all17hb5548394c514ef18E+0x28>
 800076e:	2800      	cmp	r0, #0
 8000770:	bf18      	it	ne
 8000772:	2001      	movne	r0, #1
 8000774:	e000      	b.n	8000778 <_ZN20cortex_m_semihosting3hio9write_all17hb5548394c514ef18E+0x54>
 8000776:	2000      	movs	r0, #0
 8000778:	b004      	add	sp, #16
 800077a:	e8bd 0b00 	ldmia.w	sp!, {r8, r9, fp}
 800077e:	bdf0      	pop	{r4, r5, r6, r7, pc}
 8000780:	f242 1040 	movw	r0, #8512	; 0x2140
 8000784:	21a2      	movs	r1, #162	; 0xa2
 8000786:	f6c0 0000 	movt	r0, #2048	; 0x800
 800078a:	f000 fc43 	bl	8001014 <_ZN4core9panicking14panic_nounwind17h080f20ecd2cd3cd6E>

0800078e <__c_m_sh_syscall>:
 800078e:	beab      	bkpt	0x00ab
 8000790:	4770      	bx	lr

08000792 <_defmt_timestamp>:
 8000792:	b580      	push	{r7, lr}
 8000794:	466f      	mov	r7, sp
 8000796:	b082      	sub	sp, #8
 8000798:	f64f 31f0 	movw	r1, #64496	; 0xfbf0
 800079c:	f2c2 0100 	movt	r1, #8192	; 0x2000
 80007a0:	6808      	ldr	r0, [r1, #0]
 80007a2:	1c42      	adds	r2, r0, #1
 80007a4:	d206      	bcs.n	80007b4 <_defmt_timestamp+0x22>
 80007a6:	600a      	str	r2, [r1, #0]
 80007a8:	9001      	str	r0, [sp, #4]
 80007aa:	a801      	add	r0, sp, #4
 80007ac:	f000 fb5a 	bl	8000e64 <_ZN5defmt6export3f3217h0f1b0111421a6a02E>
 80007b0:	b002      	add	sp, #8
 80007b2:	bd80      	pop	{r7, pc}
 80007b4:	f242 10f0 	movw	r0, #8688	; 0x21f0
 80007b8:	f6c0 0000 	movt	r0, #2048	; 0x800
 80007bc:	f001 fa2f 	bl	8001c1e <_ZN4core9panicking11panic_const24panic_const_add_overflow17hfaa9a98b98f8d5acE>

080007c0 <_ZN2r08zero_bss17h105081cd4831d435E>:
 80007c0:	b580      	push	{r7, lr}
 80007c2:	466f      	mov	r7, sp
 80007c4:	4288      	cmp	r0, r1
 80007c6:	bf28      	it	cs
 80007c8:	bd80      	popcs	{r7, pc}
 80007ca:	f04f 0c00 	mov.w	ip, #0
 80007ce:	4603      	mov	r3, r0
 80007d0:	b13b      	cbz	r3, 80007e2 <_ZN2r08zero_bss17h105081cd4831d435E+0x22>
 80007d2:	f010 0203 	ands.w	r2, r0, #3
 80007d6:	d104      	bne.n	80007e2 <_ZN2r08zero_bss17h105081cd4831d435E+0x22>
 80007d8:	f843 cb04 	str.w	ip, [r3], #4
 80007dc:	428b      	cmp	r3, r1
 80007de:	d3f7      	bcc.n	80007d0 <_ZN2r08zero_bss17h105081cd4831d435E+0x10>
 80007e0:	bd80      	pop	{r7, pc}
 80007e2:	f242 2000 	movw	r0, #8704	; 0x2200
 80007e6:	216f      	movs	r1, #111	; 0x6f
 80007e8:	f6c0 0000 	movt	r0, #2048	; 0x800
 80007ec:	f000 fc12 	bl	8001014 <_ZN4core9panicking14panic_nounwind17h080f20ecd2cd3cd6E>

080007f0 <ResetTrampoline>:
 80007f0:	b580      	push	{r7, lr}
 80007f2:	466f      	mov	r7, sp
 80007f4:	f7ff fdbe 	bl	8000374 <main>

080007f8 <DefaultHandler_>:
 80007f8:	e7fe      	b.n	80007f8 <DefaultHandler_>

080007fa <DefaultPreInit>:
 80007fa:	4770      	bx	lr

080007fc <_ZN44_$LT$$RF$T$u20$as$u20$core..fmt..Display$GT$3fmt17hf6d52782f796ab7fE>:
 80007fc:	6800      	ldr	r0, [r0, #0]
 80007fe:	f000 bb90 	b.w	8000f22 <_ZN73_$LT$core..panic..panic_info..PanicInfo$u20$as$u20$core..fmt..Display$GT$3fmt17h951b871c2a1d5fa4E>

08000802 <_ZN8cortex_m3asm3udf17hd43c4ae39e441cb6E>:
 8000802:	b580      	push	{r7, lr}
 8000804:	466f      	mov	r7, sp
 8000806:	f000 f854 	bl	80008b2 <__udf>

0800080a <rust_begin_unwind>:
 800080a:	b580      	push	{r7, lr}
 800080c:	466f      	mov	r7, sp
 800080e:	b082      	sub	sp, #8
 8000810:	4604      	mov	r4, r0
 8000812:	f000 f844 	bl	800089e <__cpsid>
 8000816:	f64f 30f5 	movw	r0, #64501	; 0xfbf5
 800081a:	f2c2 0000 	movt	r0, #8192	; 0x2000
 800081e:	7801      	ldrb	r1, [r0, #0]
 8000820:	b9f9      	cbnz	r1, 8000862 <rust_begin_unwind+0x58>
 8000822:	2101      	movs	r1, #1
 8000824:	7001      	strb	r1, [r0, #0]
 8000826:	9400      	str	r4, [sp, #0]
 8000828:	f000 faa9 	bl	8000d7e <_defmt_acquire>
 800082c:	f240 0008 	movw	r0, #8
 8000830:	f2c0 0000 	movt	r0, #0
 8000834:	f8ad 0004 	strh.w	r0, [sp, #4]
 8000838:	a801      	add	r0, sp, #4
 800083a:	f000 fb4f 	bl	8000edc <_ZN5defmt6export6header17he396f0078886fb2fE>
 800083e:	f240 0001 	movw	r0, #1
 8000842:	f2c0 0000 	movt	r0, #0
 8000846:	f827 0c02 	strh.w	r0, [r7, #-2]
 800084a:	1eb8      	subs	r0, r7, #2
 800084c:	f000 fb15 	bl	8000e7a <_ZN5defmt6export4istr17hdd2fc03afd69e1daE>
 8000850:	f242 2170 	movw	r1, #8816	; 0x2270
 8000854:	4668      	mov	r0, sp
 8000856:	f6c0 0100 	movt	r1, #2048	; 0x800
 800085a:	f000 fb1a 	bl	8000e92 <_ZN5defmt6export7display17h7d8d43659c23c5d3E>
 800085e:	f000 fa90 	bl	8000d82 <_defmt_release>
 8000862:	f000 f800 	bl	8000866 <_ZN11panic_probe10hard_fault17h96d64566c71dd7fcE>

08000866 <_ZN11panic_probe10hard_fault17h96d64566c71dd7fcE>:
 8000866:	b580      	push	{r7, lr}
 8000868:	466f      	mov	r7, sp
 800086a:	f64e 5024 	movw	r0, #60708	; 0xed24
 800086e:	f2ce 0000 	movt	r0, #57344	; 0xe000
 8000872:	6801      	ldr	r1, [r0, #0]
 8000874:	f421 2180 	bic.w	r1, r1, #262144	; 0x40000
 8000878:	6001      	str	r1, [r0, #0]
 800087a:	f7ff ffc2 	bl	8000802 <_ZN8cortex_m3asm3udf17hd43c4ae39e441cb6E>

0800087e <_critical_section_1_0_acquire>:
 800087e:	b5d0      	push	{r4, r6, r7, lr}
 8000880:	af02      	add	r7, sp, #8
 8000882:	f000 f813 	bl	80008ac <__primask_r>
 8000886:	2101      	movs	r1, #1
 8000888:	ea21 0400 	bic.w	r4, r1, r0
 800088c:	f000 f807 	bl	800089e <__cpsid>
 8000890:	4620      	mov	r0, r4
 8000892:	bdd0      	pop	{r4, r6, r7, pc}

08000894 <_critical_section_1_0_release>:
 8000894:	2800      	cmp	r0, #0
 8000896:	bf08      	it	eq
 8000898:	4770      	bxeq	lr
 800089a:	f000 b802 	b.w	80008a2 <__cpsie>

0800089e <__cpsid>:
 800089e:	b672      	cpsid	i
 80008a0:	4770      	bx	lr

080008a2 <__cpsie>:
 80008a2:	b662      	cpsie	i
 80008a4:	4770      	bx	lr

080008a6 <__msp_r>:
 80008a6:	f3ef 8008 	mrs	r0, MSP
 80008aa:	4770      	bx	lr

080008ac <__primask_r>:
 80008ac:	f3ef 8010 	mrs	r0, PRIMASK
 80008b0:	4770      	bx	lr

080008b2 <__udf>:
 80008b2:	de00      	udf	#0
 80008b4:	defe      	udf	#254	; 0xfe

080008b6 <__basepri_r>:
 80008b6:	f3ef 8011 	mrs	r0, BASEPRI
 80008ba:	b2c0      	uxtb	r0, r0
 80008bc:	4770      	bx	lr

080008be <__basepri_w>:
 80008be:	f380 8811 	msr	BASEPRI, r0
 80008c2:	4770      	bx	lr

080008c4 <_ZN5defmt8encoding5inner7Encoder11start_frame17h919cf6168f6cf552E>:
 80008c4:	b5f0      	push	{r4, r5, r6, r7, lr}
 80008c6:	af03      	add	r7, sp, #12
 80008c8:	f84d bd04 	str.w	fp, [sp, #-4]!
 80008cc:	b082      	sub	sp, #8
 80008ce:	7801      	ldrb	r1, [r0, #0]
 80008d0:	bb09      	cbnz	r1, 8000916 <_ZN5defmt8encoding5inner7Encoder11start_frame17h919cf6168f6cf552E+0x52>
 80008d2:	2101      	movs	r1, #1
 80008d4:	f64f 35a8 	movw	r5, #64424	; 0xfba8
 80008d8:	7001      	strb	r1, [r0, #0]
 80008da:	2000      	movs	r0, #0
 80008dc:	f807 0c11 	strb.w	r0, [r7, #-17]
 80008e0:	f2c2 0500 	movt	r5, #8192	; 0x2000
 80008e4:	6ae8      	ldr	r0, [r5, #44]	; 0x2c
 80008e6:	f640 4645 	movw	r6, #3141	; 0xc45
 80008ea:	f1a7 0411 	sub.w	r4, r7, #17
 80008ee:	f640 31d7 	movw	r1, #3031	; 0xbd7
 80008f2:	f000 0003 	and.w	r0, r0, #3
 80008f6:	f6c0 0600 	movt	r6, #2048	; 0x800
 80008fa:	f6c0 0100 	movt	r1, #2048	; 0x800
 80008fe:	2802      	cmp	r0, #2
 8000900:	bf08      	it	eq
 8000902:	460e      	moveq	r6, r1
 8000904:	f105 0018 	add.w	r0, r5, #24
 8000908:	4621      	mov	r1, r4
 800090a:	2201      	movs	r2, #1
 800090c:	47b0      	blx	r6
 800090e:	2800      	cmp	r0, #0
 8000910:	d0f8      	beq.n	8000904 <_ZN5defmt8encoding5inner7Encoder11start_frame17h919cf6168f6cf552E+0x40>
 8000912:	2801      	cmp	r0, #1
 8000914:	d103      	bne.n	800091e <_ZN5defmt8encoding5inner7Encoder11start_frame17h919cf6168f6cf552E+0x5a>
 8000916:	b002      	add	sp, #8
 8000918:	f85d bb04 	ldr.w	fp, [sp], #4
 800091c:	bdf0      	pop	{r4, r5, r6, r7, pc}
 800091e:	f242 32f4 	movw	r2, #9204	; 0x23f4
 8000922:	2101      	movs	r1, #1
 8000924:	f6c0 0200 	movt	r2, #2048	; 0x800
 8000928:	f000 feee 	bl	8001708 <_ZN4core5slice5index26slice_start_index_len_fail17hc8f92d1ae4595efdE>

0800092c <_ZN5defmt8encoding5inner7Encoder5write17h6a08ba92eb2043c1E>:
 800092c:	b5f0      	push	{r4, r5, r6, r7, lr}
 800092e:	af03      	add	r7, sp, #12
 8000930:	e92d 0f00 	stmdb	sp!, {r8, r9, sl, fp}
 8000934:	b085      	sub	sp, #20
 8000936:	2a00      	cmp	r2, #0
 8000938:	f000 80d0 	beq.w	8000adc <_ZN5defmt8encoding5inner7Encoder5write17h6a08ba92eb2043c1E+0x1b0>
 800093c:	7845      	ldrb	r5, [r0, #1]
 800093e:	f64f 3ba8 	movw	fp, #64424	; 0xfba8
 8000942:	7883      	ldrb	r3, [r0, #2]
 8000944:	f1a7 0a1e 	sub.w	sl, r7, #30
 8000948:	f1a7 0421 	sub.w	r4, r7, #33	; 0x21
 800094c:	4689      	mov	r9, r1
 800094e:	f2c2 0b00 	movt	fp, #8192	; 0x2000
 8000952:	4411      	add	r1, r2
 8000954:	9101      	str	r1, [sp, #4]
 8000956:	9002      	str	r0, [sp, #8]
 8000958:	f819 2b01 	ldrb.w	r2, [r9], #1
 800095c:	b2e9      	uxtb	r1, r5
 800095e:	2907      	cmp	r1, #7
 8000960:	d220      	bcs.n	80009a4 <_ZN5defmt8encoding5inner7Encoder5write17h6a08ba92eb2043c1E+0x78>
 8000962:	2a00      	cmp	r2, #0
 8000964:	d066      	beq.n	8000a34 <_ZN5defmt8encoding5inner7Encoder5write17h6a08ba92eb2043c1E+0x108>
 8000966:	f807 2c1e 	strb.w	r2, [r7, #-30]
 800096a:	f640 4645 	movw	r6, #3141	; 0xc45
 800096e:	f8db 002c 	ldr.w	r0, [fp, #44]	; 0x2c
 8000972:	4698      	mov	r8, r3
 8000974:	f6c0 0600 	movt	r6, #2048	; 0x800
 8000978:	f000 0003 	and.w	r0, r0, #3
 800097c:	2802      	cmp	r0, #2
 800097e:	f640 30d7 	movw	r0, #3031	; 0xbd7
 8000982:	f6c0 0000 	movt	r0, #2048	; 0x800
 8000986:	bf08      	it	eq
 8000988:	4606      	moveq	r6, r0
 800098a:	f10b 0018 	add.w	r0, fp, #24
 800098e:	4651      	mov	r1, sl
 8000990:	2201      	movs	r2, #1
 8000992:	47b0      	blx	r6
 8000994:	2800      	cmp	r0, #0
 8000996:	d0f8      	beq.n	800098a <_ZN5defmt8encoding5inner7Encoder5write17h6a08ba92eb2043c1E+0x5e>
 8000998:	2801      	cmp	r0, #1
 800099a:	f040 80a3 	bne.w	8000ae4 <_ZN5defmt8encoding5inner7Encoder5write17h6a08ba92eb2043c1E+0x1b8>
 800099e:	9802      	ldr	r0, [sp, #8]
 80009a0:	4643      	mov	r3, r8
 80009a2:	e04c      	b.n	8000a3e <_ZN5defmt8encoding5inner7Encoder5write17h6a08ba92eb2043c1E+0x112>
 80009a4:	2a00      	cmp	r2, #0
 80009a6:	d06f      	beq.n	8000a88 <_ZN5defmt8encoding5inner7Encoder5write17h6a08ba92eb2043c1E+0x15c>
 80009a8:	9300      	str	r3, [sp, #0]
 80009aa:	464e      	mov	r6, r9
 80009ac:	f807 2c21 	strb.w	r2, [r7, #-33]
 80009b0:	f640 4945 	movw	r9, #3141	; 0xc45
 80009b4:	f8db 002c 	ldr.w	r0, [fp, #44]	; 0x2c
 80009b8:	f6c0 0900 	movt	r9, #2048	; 0x800
 80009bc:	f000 0003 	and.w	r0, r0, #3
 80009c0:	2802      	cmp	r0, #2
 80009c2:	f640 30d7 	movw	r0, #3031	; 0xbd7
 80009c6:	f6c0 0000 	movt	r0, #2048	; 0x800
 80009ca:	bf08      	it	eq
 80009cc:	4681      	moveq	r9, r0
 80009ce:	f10b 0818 	add.w	r8, fp, #24
 80009d2:	4621      	mov	r1, r4
 80009d4:	2201      	movs	r2, #1
 80009d6:	4640      	mov	r0, r8
 80009d8:	47c8      	blx	r9
 80009da:	2800      	cmp	r0, #0
 80009dc:	d0f7      	beq.n	80009ce <_ZN5defmt8encoding5inner7Encoder5write17h6a08ba92eb2043c1E+0xa2>
 80009de:	2801      	cmp	r0, #1
 80009e0:	f040 8080 	bne.w	8000ae4 <_ZN5defmt8encoding5inner7Encoder5write17h6a08ba92eb2043c1E+0x1b8>
 80009e4:	2001      	movs	r0, #1
 80009e6:	fa50 f585 	uxtab	r5, r0, r5
 80009ea:	b2e9      	uxtb	r1, r5
 80009ec:	42a9      	cmp	r1, r5
 80009ee:	f040 8080 	bne.w	8000af2 <_ZN5defmt8encoding5inner7Encoder5write17h6a08ba92eb2043c1E+0x1c6>
 80009f2:	9802      	ldr	r0, [sp, #8]
 80009f4:	2986      	cmp	r1, #134	; 0x86
 80009f6:	9b00      	ldr	r3, [sp, #0]
 80009f8:	46b1      	mov	r9, r6
 80009fa:	7045      	strb	r5, [r0, #1]
 80009fc:	d16a      	bne.n	8000ad4 <_ZN5defmt8encoding5inner7Encoder5write17h6a08ba92eb2043c1E+0x1a8>
 80009fe:	20ff      	movs	r0, #255	; 0xff
 8000a00:	f640 4645 	movw	r6, #3141	; 0xc45
 8000a04:	f807 0c1f 	strb.w	r0, [r7, #-31]
 8000a08:	f1a7 051f 	sub.w	r5, r7, #31
 8000a0c:	f8db 002c 	ldr.w	r0, [fp, #44]	; 0x2c
 8000a10:	f6c0 0600 	movt	r6, #2048	; 0x800
 8000a14:	f000 0003 	and.w	r0, r0, #3
 8000a18:	2802      	cmp	r0, #2
 8000a1a:	f640 30d7 	movw	r0, #3031	; 0xbd7
 8000a1e:	f6c0 0000 	movt	r0, #2048	; 0x800
 8000a22:	bf08      	it	eq
 8000a24:	4606      	moveq	r6, r0
 8000a26:	4640      	mov	r0, r8
 8000a28:	4629      	mov	r1, r5
 8000a2a:	2201      	movs	r2, #1
 8000a2c:	47b0      	blx	r6
 8000a2e:	2800      	cmp	r0, #0
 8000a30:	d0f9      	beq.n	8000a26 <_ZN5defmt8encoding5inner7Encoder5write17h6a08ba92eb2043c1E+0xfa>
 8000a32:	e025      	b.n	8000a80 <_ZN5defmt8encoding5inner7Encoder5write17h6a08ba92eb2043c1E+0x154>
 8000a34:	2201      	movs	r2, #1
 8000a36:	fa02 f101 	lsl.w	r1, r2, r1
 8000a3a:	430b      	orrs	r3, r1
 8000a3c:	7083      	strb	r3, [r0, #2]
 8000a3e:	3501      	adds	r5, #1
 8000a40:	7045      	strb	r5, [r0, #1]
 8000a42:	b2e9      	uxtb	r1, r5
 8000a44:	2907      	cmp	r1, #7
 8000a46:	d145      	bne.n	8000ad4 <_ZN5defmt8encoding5inner7Encoder5write17h6a08ba92eb2043c1E+0x1a8>
 8000a48:	0619      	lsls	r1, r3, #24
 8000a4a:	d043      	beq.n	8000ad4 <_ZN5defmt8encoding5inner7Encoder5write17h6a08ba92eb2043c1E+0x1a8>
 8000a4c:	f807 3c1d 	strb.w	r3, [r7, #-29]
 8000a50:	f640 4645 	movw	r6, #3141	; 0xc45
 8000a54:	f8db 002c 	ldr.w	r0, [fp, #44]	; 0x2c
 8000a58:	f1a7 051d 	sub.w	r5, r7, #29
 8000a5c:	f6c0 0600 	movt	r6, #2048	; 0x800
 8000a60:	f000 0003 	and.w	r0, r0, #3
 8000a64:	2802      	cmp	r0, #2
 8000a66:	f640 30d7 	movw	r0, #3031	; 0xbd7
 8000a6a:	f6c0 0000 	movt	r0, #2048	; 0x800
 8000a6e:	bf08      	it	eq
 8000a70:	4606      	moveq	r6, r0
 8000a72:	f10b 0018 	add.w	r0, fp, #24
 8000a76:	4629      	mov	r1, r5
 8000a78:	2201      	movs	r2, #1
 8000a7a:	47b0      	blx	r6
 8000a7c:	2800      	cmp	r0, #0
 8000a7e:	d0f8      	beq.n	8000a72 <_ZN5defmt8encoding5inner7Encoder5write17h6a08ba92eb2043c1E+0x146>
 8000a80:	2801      	cmp	r0, #1
 8000a82:	d12f      	bne.n	8000ae4 <_ZN5defmt8encoding5inner7Encoder5write17h6a08ba92eb2043c1E+0x1b8>
 8000a84:	9802      	ldr	r0, [sp, #8]
 8000a86:	e021      	b.n	8000acc <_ZN5defmt8encoding5inner7Encoder5write17h6a08ba92eb2043c1E+0x1a0>
 8000a88:	f105 0079 	add.w	r0, r5, #121	; 0x79
 8000a8c:	f640 4645 	movw	r6, #3141	; 0xc45
 8000a90:	f040 0080 	orr.w	r0, r0, #128	; 0x80
 8000a94:	f88d 0010 	strb.w	r0, [sp, #16]
 8000a98:	f8db 002c 	ldr.w	r0, [fp, #44]	; 0x2c
 8000a9c:	46a0      	mov	r8, r4
 8000a9e:	ac04      	add	r4, sp, #16
 8000aa0:	f6c0 0600 	movt	r6, #2048	; 0x800
 8000aa4:	f000 0003 	and.w	r0, r0, #3
 8000aa8:	2802      	cmp	r0, #2
 8000aaa:	f640 30d7 	movw	r0, #3031	; 0xbd7
 8000aae:	f6c0 0000 	movt	r0, #2048	; 0x800
 8000ab2:	bf08      	it	eq
 8000ab4:	4606      	moveq	r6, r0
 8000ab6:	f10b 0018 	add.w	r0, fp, #24
 8000aba:	4621      	mov	r1, r4
 8000abc:	2201      	movs	r2, #1
 8000abe:	47b0      	blx	r6
 8000ac0:	2800      	cmp	r0, #0
 8000ac2:	d0f8      	beq.n	8000ab6 <_ZN5defmt8encoding5inner7Encoder5write17h6a08ba92eb2043c1E+0x18a>
 8000ac4:	2801      	cmp	r0, #1
 8000ac6:	d10d      	bne.n	8000ae4 <_ZN5defmt8encoding5inner7Encoder5write17h6a08ba92eb2043c1E+0x1b8>
 8000ac8:	9802      	ldr	r0, [sp, #8]
 8000aca:	4644      	mov	r4, r8
 8000acc:	2300      	movs	r3, #0
 8000ace:	2500      	movs	r5, #0
 8000ad0:	f8a0 3001 	strh.w	r3, [r0, #1]
 8000ad4:	9901      	ldr	r1, [sp, #4]
 8000ad6:	4589      	cmp	r9, r1
 8000ad8:	f47f af3e 	bne.w	8000958 <_ZN5defmt8encoding5inner7Encoder5write17h6a08ba92eb2043c1E+0x2c>
 8000adc:	b005      	add	sp, #20
 8000ade:	e8bd 0f00 	ldmia.w	sp!, {r8, r9, sl, fp}
 8000ae2:	bdf0      	pop	{r4, r5, r6, r7, pc}
 8000ae4:	f242 32f4 	movw	r2, #9204	; 0x23f4
 8000ae8:	2101      	movs	r1, #1
 8000aea:	f6c0 0200 	movt	r2, #2048	; 0x800
 8000aee:	f000 fe0b 	bl	8001708 <_ZN4core5slice5index26slice_start_index_len_fail17hc8f92d1ae4595efdE>
 8000af2:	f242 3088 	movw	r0, #9096	; 0x2388
 8000af6:	f6c0 0000 	movt	r0, #2048	; 0x800
 8000afa:	f001 f890 	bl	8001c1e <_ZN4core9panicking11panic_const24panic_const_add_overflow17hfaa9a98b98f8d5acE>

08000afe <_ZN5defmt8encoding5inner7Encoder9end_frame17hee495560be910f50E>:
 8000afe:	b5f0      	push	{r4, r5, r6, r7, lr}
 8000b00:	af03      	add	r7, sp, #12
 8000b02:	e92d 0700 	stmdb	sp!, {r8, r9, sl}
 8000b06:	b082      	sub	sp, #8
 8000b08:	4680      	mov	r8, r0
 8000b0a:	7840      	ldrb	r0, [r0, #1]
 8000b0c:	f64f 36a8 	movw	r6, #64424	; 0xfba8
 8000b10:	f640 39d7 	movw	r9, #3031	; 0xbd7
 8000b14:	f640 4445 	movw	r4, #3141	; 0xc45
 8000b18:	f2c2 0600 	movt	r6, #8192	; 0x2000
 8000b1c:	f6c0 0900 	movt	r9, #2048	; 0x800
 8000b20:	f6c0 0400 	movt	r4, #2048	; 0x800
 8000b24:	b3a0      	cbz	r0, 8000b90 <_ZN5defmt8encoding5inner7Encoder9end_frame17hee495560be910f50E+0x92>
 8000b26:	2807      	cmp	r0, #7
 8000b28:	d21b      	bcs.n	8000b62 <_ZN5defmt8encoding5inner7Encoder9end_frame17hee495560be910f50E+0x64>
 8000b2a:	f04f 32ff 	mov.w	r2, #4294967295	; 0xffffffff
 8000b2e:	f898 1002 	ldrb.w	r1, [r8, #2]
 8000b32:	fa02 f000 	lsl.w	r0, r2, r0
 8000b36:	f1a7 0a19 	sub.w	sl, r7, #25
 8000b3a:	4308      	orrs	r0, r1
 8000b3c:	4625      	mov	r5, r4
 8000b3e:	f000 007f 	and.w	r0, r0, #127	; 0x7f
 8000b42:	f807 0c19 	strb.w	r0, [r7, #-25]
 8000b46:	6af0      	ldr	r0, [r6, #44]	; 0x2c
 8000b48:	f000 0003 	and.w	r0, r0, #3
 8000b4c:	2802      	cmp	r0, #2
 8000b4e:	bf08      	it	eq
 8000b50:	464d      	moveq	r5, r9
 8000b52:	f106 0018 	add.w	r0, r6, #24
 8000b56:	4651      	mov	r1, sl
 8000b58:	2201      	movs	r2, #1
 8000b5a:	47a8      	blx	r5
 8000b5c:	2800      	cmp	r0, #0
 8000b5e:	d0f8      	beq.n	8000b52 <_ZN5defmt8encoding5inner7Encoder9end_frame17hee495560be910f50E+0x54>
 8000b60:	e014      	b.n	8000b8c <_ZN5defmt8encoding5inner7Encoder9end_frame17hee495560be910f50E+0x8e>
 8000b62:	3079      	adds	r0, #121	; 0x79
 8000b64:	f1a7 0a1a 	sub.w	sl, r7, #26
 8000b68:	f040 0080 	orr.w	r0, r0, #128	; 0x80
 8000b6c:	f807 0c1a 	strb.w	r0, [r7, #-26]
 8000b70:	6af0      	ldr	r0, [r6, #44]	; 0x2c
 8000b72:	4625      	mov	r5, r4
 8000b74:	f000 0003 	and.w	r0, r0, #3
 8000b78:	2802      	cmp	r0, #2
 8000b7a:	bf08      	it	eq
 8000b7c:	464d      	moveq	r5, r9
 8000b7e:	f106 0018 	add.w	r0, r6, #24
 8000b82:	4651      	mov	r1, sl
 8000b84:	2201      	movs	r2, #1
 8000b86:	47a8      	blx	r5
 8000b88:	2800      	cmp	r0, #0
 8000b8a:	d0f8      	beq.n	8000b7e <_ZN5defmt8encoding5inner7Encoder9end_frame17hee495560be910f50E+0x80>
 8000b8c:	2801      	cmp	r0, #1
 8000b8e:	d11b      	bne.n	8000bc8 <_ZN5defmt8encoding5inner7Encoder9end_frame17hee495560be910f50E+0xca>
 8000b90:	2000      	movs	r0, #0
 8000b92:	f1a7 051b 	sub.w	r5, r7, #27
 8000b96:	f807 0c1b 	strb.w	r0, [r7, #-27]
 8000b9a:	6af0      	ldr	r0, [r6, #44]	; 0x2c
 8000b9c:	f000 0003 	and.w	r0, r0, #3
 8000ba0:	2802      	cmp	r0, #2
 8000ba2:	bf08      	it	eq
 8000ba4:	464c      	moveq	r4, r9
 8000ba6:	f106 0018 	add.w	r0, r6, #24
 8000baa:	4629      	mov	r1, r5
 8000bac:	2201      	movs	r2, #1
 8000bae:	47a0      	blx	r4
 8000bb0:	2800      	cmp	r0, #0
 8000bb2:	d0f8      	beq.n	8000ba6 <_ZN5defmt8encoding5inner7Encoder9end_frame17hee495560be910f50E+0xa8>
 8000bb4:	2801      	cmp	r0, #1
 8000bb6:	bf01      	itttt	eq
 8000bb8:	2000      	moveq	r0, #0
 8000bba:	f8a8 0001 	strheq.w	r0, [r8, #1]
 8000bbe:	b002      	addeq	sp, #8
 8000bc0:	e8bd 0700 	ldmiaeq.w	sp!, {r8, r9, sl}
 8000bc4:	bf08      	it	eq
 8000bc6:	bdf0      	popeq	{r4, r5, r6, r7, pc}
 8000bc8:	f242 32f4 	movw	r2, #9204	; 0x23f4
 8000bcc:	2101      	movs	r1, #1
 8000bce:	f6c0 0200 	movt	r2, #2048	; 0x800
 8000bd2:	f000 fd99 	bl	8001708 <_ZN4core5slice5index26slice_start_index_len_fail17hc8f92d1ae4595efdE>

08000bd6 <_ZN10defmt_brtt3rtt7Channel14blocking_write17haf143ef5428c8248E>:
 8000bd6:	b580      	push	{r7, lr}
 8000bd8:	466f      	mov	r7, sp
 8000bda:	b082      	sub	sp, #8
 8000bdc:	b31a      	cbz	r2, 8000c26 <_ZN10defmt_brtt3rtt7Channel14blocking_write17haf143ef5428c8248E+0x50>
 8000bde:	f8d0 c010 	ldr.w	ip, [r0, #16]
 8000be2:	68c3      	ldr	r3, [r0, #12]
 8000be4:	f3bf 8f5f 	dmb	sy
 8000be8:	459c      	cmp	ip, r3
 8000bea:	d903      	bls.n	8000bf4 <_ZN10defmt_brtt3rtt7Channel14blocking_write17haf143ef5428c8248E+0x1e>
 8000bec:	ea6f 0e03 	mvn.w	lr, r3
 8000bf0:	44f4      	add	ip, lr
 8000bf2:	e010      	b.n	8000c16 <_ZN10defmt_brtt3rtt7Channel14blocking_write17haf143ef5428c8248E+0x40>
 8000bf4:	f1bc 0f00 	cmp.w	ip, #0
 8000bf8:	d005      	beq.n	8000c06 <_ZN10defmt_brtt3rtt7Channel14blocking_write17haf143ef5428c8248E+0x30>
 8000bfa:	f5b3 6f80 	cmp.w	r3, #1024	; 0x400
 8000bfe:	d81b      	bhi.n	8000c38 <_ZN10defmt_brtt3rtt7Channel14blocking_write17haf143ef5428c8248E+0x62>
 8000c00:	f5c3 6c80 	rsb	ip, r3, #1024	; 0x400
 8000c04:	e007      	b.n	8000c16 <_ZN10defmt_brtt3rtt7Channel14blocking_write17haf143ef5428c8248E+0x40>
 8000c06:	f5b3 6f80 	cmp.w	r3, #1024	; 0x400
 8000c0a:	d80f      	bhi.n	8000c2c <_ZN10defmt_brtt3rtt7Channel14blocking_write17haf143ef5428c8248E+0x56>
 8000c0c:	d00e      	beq.n	8000c2c <_ZN10defmt_brtt3rtt7Channel14blocking_write17haf143ef5428c8248E+0x56>
 8000c0e:	f240 3cff 	movw	ip, #1023	; 0x3ff
 8000c12:	ebac 0c03 	sub.w	ip, ip, r3
 8000c16:	f1bc 0f00 	cmp.w	ip, #0
 8000c1a:	d004      	beq.n	8000c26 <_ZN10defmt_brtt3rtt7Channel14blocking_write17haf143ef5428c8248E+0x50>
 8000c1c:	f8cd c000 	str.w	ip, [sp]
 8000c20:	f000 f81e 	bl	8000c60 <_ZN10defmt_brtt3rtt7Channel10write_impl17h3ac8e2dcb04206a2E>
 8000c24:	e000      	b.n	8000c28 <_ZN10defmt_brtt3rtt7Channel14blocking_write17haf143ef5428c8248E+0x52>
 8000c26:	2000      	movs	r0, #0
 8000c28:	b002      	add	sp, #8
 8000c2a:	bd80      	pop	{r7, pc}
 8000c2c:	f242 4034 	movw	r0, #9268	; 0x2434
 8000c30:	f6c0 0000 	movt	r0, #2048	; 0x800
 8000c34:	f001 f806 	bl	8001c44 <_ZN4core9panicking11panic_const24panic_const_sub_overflow17h93979984e7c4c82aE>
 8000c38:	f242 4044 	movw	r0, #9284	; 0x2444
 8000c3c:	f6c0 0000 	movt	r0, #2048	; 0x800
 8000c40:	f001 f800 	bl	8001c44 <_ZN4core9panicking11panic_const24panic_const_sub_overflow17h93979984e7c4c82aE>

08000c44 <_ZN10defmt_brtt3rtt7Channel17nonblocking_write17h88a2c390b3e63d10E>:
 8000c44:	b580      	push	{r7, lr}
 8000c46:	466f      	mov	r7, sp
 8000c48:	b082      	sub	sp, #8
 8000c4a:	68c3      	ldr	r3, [r0, #12]
 8000c4c:	f44f 6c80 	mov.w	ip, #1024	; 0x400
 8000c50:	f3bf 8f5f 	dmb	sy
 8000c54:	f8cd c000 	str.w	ip, [sp]
 8000c58:	f000 f802 	bl	8000c60 <_ZN10defmt_brtt3rtt7Channel10write_impl17h3ac8e2dcb04206a2E>
 8000c5c:	b002      	add	sp, #8
 8000c5e:	bd80      	pop	{r7, pc}

08000c60 <_ZN10defmt_brtt3rtt7Channel10write_impl17h3ac8e2dcb04206a2E>:
 8000c60:	b5f0      	push	{r4, r5, r6, r7, lr}
 8000c62:	af03      	add	r7, sp, #12
 8000c64:	e92d 0b00 	stmdb	sp!, {r8, r9, fp}
 8000c68:	68bd      	ldr	r5, [r7, #8]
 8000c6a:	4680      	mov	r8, r0
 8000c6c:	42aa      	cmp	r2, r5
 8000c6e:	bf38      	it	cc
 8000c70:	4615      	movcc	r5, r2
 8000c72:	1958      	adds	r0, r3, r5
 8000c74:	d243      	bcs.n	8000cfe <_ZN10defmt_brtt3rtt7Channel10write_impl17h3ac8e2dcb04206a2E+0x9e>
 8000c76:	4699      	mov	r9, r3
 8000c78:	460c      	mov	r4, r1
 8000c7a:	f5b0 6f80 	cmp.w	r0, #1024	; 0x400
 8000c7e:	d91e      	bls.n	8000cbe <_ZN10defmt_brtt3rtt7Channel10write_impl17h3ac8e2dcb04206a2E+0x5e>
 8000c80:	f5b9 6f80 	cmp.w	r9, #1024	; 0x400
 8000c84:	d841      	bhi.n	8000d0a <_ZN10defmt_brtt3rtt7Channel10write_impl17h3ac8e2dcb04206a2E+0xaa>
 8000c86:	f8d8 0004 	ldr.w	r0, [r8, #4]
 8000c8a:	b388      	cbz	r0, 8000cf0 <_ZN10defmt_brtt3rtt7Channel10write_impl17h3ac8e2dcb04206a2E+0x90>
 8000c8c:	4448      	add	r0, r9
 8000c8e:	f5c9 6680 	rsb	r6, r9, #1024	; 0x400
 8000c92:	1b01      	subs	r1, r0, r4
 8000c94:	bf98      	it	ls
 8000c96:	1a21      	subls	r1, r4, r0
 8000c98:	42b1      	cmp	r1, r6
 8000c9a:	d329      	bcc.n	8000cf0 <_ZN10defmt_brtt3rtt7Channel10write_impl17h3ac8e2dcb04206a2E+0x90>
 8000c9c:	4621      	mov	r1, r4
 8000c9e:	4632      	mov	r2, r6
 8000ca0:	f001 f917 	bl	8001ed2 <__aeabi_memcpy>
 8000ca4:	42b5      	cmp	r5, r6
 8000ca6:	d336      	bcc.n	8000d16 <_ZN10defmt_brtt3rtt7Channel10write_impl17h3ac8e2dcb04206a2E+0xb6>
 8000ca8:	f8d8 0004 	ldr.w	r0, [r8, #4]
 8000cac:	b300      	cbz	r0, 8000cf0 <_ZN10defmt_brtt3rtt7Channel10write_impl17h3ac8e2dcb04206a2E+0x90>
 8000cae:	19a1      	adds	r1, r4, r6
 8000cb0:	1baa      	subs	r2, r5, r6
 8000cb2:	1a43      	subs	r3, r0, r1
 8000cb4:	bf98      	it	ls
 8000cb6:	1a0b      	subls	r3, r1, r0
 8000cb8:	4293      	cmp	r3, r2
 8000cba:	d20b      	bcs.n	8000cd4 <_ZN10defmt_brtt3rtt7Channel10write_impl17h3ac8e2dcb04206a2E+0x74>
 8000cbc:	e018      	b.n	8000cf0 <_ZN10defmt_brtt3rtt7Channel10write_impl17h3ac8e2dcb04206a2E+0x90>
 8000cbe:	f8d8 0004 	ldr.w	r0, [r8, #4]
 8000cc2:	b1a8      	cbz	r0, 8000cf0 <_ZN10defmt_brtt3rtt7Channel10write_impl17h3ac8e2dcb04206a2E+0x90>
 8000cc4:	4448      	add	r0, r9
 8000cc6:	1b01      	subs	r1, r0, r4
 8000cc8:	bf98      	it	ls
 8000cca:	1a21      	subls	r1, r4, r0
 8000ccc:	42a9      	cmp	r1, r5
 8000cce:	d30f      	bcc.n	8000cf0 <_ZN10defmt_brtt3rtt7Channel10write_impl17h3ac8e2dcb04206a2E+0x90>
 8000cd0:	4621      	mov	r1, r4
 8000cd2:	462a      	mov	r2, r5
 8000cd4:	f001 f8fd 	bl	8001ed2 <__aeabi_memcpy>
 8000cd8:	eb05 0009 	add.w	r0, r5, r9
 8000cdc:	f3bf 8f5f 	dmb	sy
 8000ce0:	f36f 209f 	bfc	r0, #10, #22
 8000ce4:	f8c8 000c 	str.w	r0, [r8, #12]
 8000ce8:	4628      	mov	r0, r5
 8000cea:	e8bd 0b00 	ldmia.w	sp!, {r8, r9, fp}
 8000cee:	bdf0      	pop	{r4, r5, r6, r7, pc}
 8000cf0:	f242 2080 	movw	r0, #8832	; 0x2280
 8000cf4:	21a6      	movs	r1, #166	; 0xa6
 8000cf6:	f6c0 0000 	movt	r0, #2048	; 0x800
 8000cfa:	f000 f98b 	bl	8001014 <_ZN4core9panicking14panic_nounwind17h080f20ecd2cd3cd6E>
 8000cfe:	f242 4004 	movw	r0, #9220	; 0x2404
 8000d02:	f6c0 0000 	movt	r0, #2048	; 0x800
 8000d06:	f000 ff8a 	bl	8001c1e <_ZN4core9panicking11panic_const24panic_const_add_overflow17hfaa9a98b98f8d5acE>
 8000d0a:	f242 4014 	movw	r0, #9236	; 0x2414
 8000d0e:	f6c0 0000 	movt	r0, #2048	; 0x800
 8000d12:	f000 ff97 	bl	8001c44 <_ZN4core9panicking11panic_const24panic_const_sub_overflow17h93979984e7c4c82aE>
 8000d16:	f242 4024 	movw	r0, #9252	; 0x2424
 8000d1a:	f6c0 0000 	movt	r0, #2048	; 0x800
 8000d1e:	f000 ff91 	bl	8001c44 <_ZN4core9panicking11panic_const24panic_const_sub_overflow17h93979984e7c4c82aE>

08000d22 <_ZN60_$LT$defmt_brtt..Logger$u20$as$u20$defmt..traits..Logger$GT$7acquire17hf8ea2820fb8ba40dE>:
 8000d22:	b580      	push	{r7, lr}
 8000d24:	466f      	mov	r7, sp
 8000d26:	b086      	sub	sp, #24
 8000d28:	f7ff fda9 	bl	800087e <_critical_section_1_0_acquire>
 8000d2c:	f64f 31f7 	movw	r1, #64503	; 0xfbf7
 8000d30:	f2c2 0100 	movt	r1, #8192	; 0x2000
 8000d34:	780a      	ldrb	r2, [r1, #0]
 8000d36:	b97a      	cbnz	r2, 8000d58 <_ZN60_$LT$defmt_brtt..Logger$u20$as$u20$defmt..traits..Logger$GT$7acquire17hf8ea2820fb8ba40dE+0x36>
 8000d38:	2201      	movs	r2, #1
 8000d3a:	700a      	strb	r2, [r1, #0]
 8000d3c:	f64f 31f8 	movw	r1, #64504	; 0xfbf8
 8000d40:	f2c2 0100 	movt	r1, #8192	; 0x2000
 8000d44:	7008      	strb	r0, [r1, #0]
 8000d46:	f64f 30f9 	movw	r0, #64505	; 0xfbf9
 8000d4a:	f2c2 0000 	movt	r0, #8192	; 0x2000
 8000d4e:	b006      	add	sp, #24
 8000d50:	e8bd 4080 	ldmia.w	sp!, {r7, lr}
 8000d54:	f7ff bdb6 	b.w	80008c4 <_ZN5defmt8encoding5inner7Encoder11start_frame17h919cf6168f6cf552E>
 8000d58:	2101      	movs	r1, #1
 8000d5a:	2000      	movs	r0, #0
 8000d5c:	9101      	str	r1, [sp, #4]
 8000d5e:	f242 4174 	movw	r1, #9332	; 0x2474
 8000d62:	f6c0 0100 	movt	r1, #2048	; 0x800
 8000d66:	9004      	str	r0, [sp, #16]
 8000d68:	9100      	str	r1, [sp, #0]
 8000d6a:	f242 41d8 	movw	r1, #9432	; 0x24d8
 8000d6e:	9003      	str	r0, [sp, #12]
 8000d70:	2004      	movs	r0, #4
 8000d72:	9002      	str	r0, [sp, #8]
 8000d74:	f6c0 0100 	movt	r1, #2048	; 0x800
 8000d78:	4668      	mov	r0, sp
 8000d7a:	f000 f929 	bl	8000fd0 <_ZN4core9panicking9panic_fmt17ha28037c9d7b27c20E>

08000d7e <_defmt_acquire>:
 8000d7e:	f7ff bfd0 	b.w	8000d22 <_ZN60_$LT$defmt_brtt..Logger$u20$as$u20$defmt..traits..Logger$GT$7acquire17hf8ea2820fb8ba40dE>

08000d82 <_defmt_release>:
 8000d82:	b580      	push	{r7, lr}
 8000d84:	466f      	mov	r7, sp
 8000d86:	f64f 30f9 	movw	r0, #64505	; 0xfbf9
 8000d8a:	f2c2 0000 	movt	r0, #8192	; 0x2000
 8000d8e:	f7ff feb6 	bl	8000afe <_ZN5defmt8encoding5inner7Encoder9end_frame17hee495560be910f50E>
 8000d92:	f64f 30f7 	movw	r0, #64503	; 0xfbf7
 8000d96:	2100      	movs	r1, #0
 8000d98:	f2c2 0000 	movt	r0, #8192	; 0x2000
 8000d9c:	7001      	strb	r1, [r0, #0]
 8000d9e:	f64f 30f8 	movw	r0, #64504	; 0xfbf8
 8000da2:	f2c2 0000 	movt	r0, #8192	; 0x2000
 8000da6:	7800      	ldrb	r0, [r0, #0]
 8000da8:	e8bd 4080 	ldmia.w	sp!, {r7, lr}
 8000dac:	f7ff bd72 	b.w	8000894 <_critical_section_1_0_release>

08000db0 <_defmt_write>:
 8000db0:	460a      	mov	r2, r1
 8000db2:	4601      	mov	r1, r0
 8000db4:	f64f 30f9 	movw	r0, #64505	; 0xfbf9
 8000db8:	f2c2 0000 	movt	r0, #8192	; 0x2000
 8000dbc:	f7ff bdb6 	b.w	800092c <_ZN5defmt8encoding5inner7Encoder5write17h6a08ba92eb2043c1E>

08000dc0 <_ZN42_$LT$$RF$T$u20$as$u20$core..fmt..Debug$GT$3fmt17ha417942a54d12907E>:
 8000dc0:	e9d0 0200 	ldrd	r0, r2, [r0]
 8000dc4:	68d2      	ldr	r2, [r2, #12]
 8000dc6:	4710      	bx	r2

08000dc8 <_ZN4core3fmt5Write10write_char17h30d0e8c8c9ed8595E>:
 8000dc8:	b580      	push	{r7, lr}
 8000dca:	466f      	mov	r7, sp
 8000dcc:	b082      	sub	sp, #8
 8000dce:	2000      	movs	r0, #0
 8000dd0:	2980      	cmp	r1, #128	; 0x80
 8000dd2:	9001      	str	r0, [sp, #4]
 8000dd4:	d203      	bcs.n	8000dde <_ZN4core3fmt5Write10write_char17h30d0e8c8c9ed8595E+0x16>
 8000dd6:	f88d 1004 	strb.w	r1, [sp, #4]
 8000dda:	2201      	movs	r2, #1
 8000ddc:	e034      	b.n	8000e48 <_ZN4core3fmt5Write10write_char17h30d0e8c8c9ed8595E+0x80>
 8000dde:	f5b1 6f00 	cmp.w	r1, #2048	; 0x800
 8000de2:	d209      	bcs.n	8000df8 <_ZN4core3fmt5Write10write_char17h30d0e8c8c9ed8595E+0x30>
 8000de4:	2202      	movs	r2, #2
 8000de6:	4608      	mov	r0, r1
 8000de8:	f362 109f 	bfi	r0, r2, #6, #26
 8000dec:	f88d 0005 	strb.w	r0, [sp, #5]
 8000df0:	20c0      	movs	r0, #192	; 0xc0
 8000df2:	ea40 1091 	orr.w	r0, r0, r1, lsr #6
 8000df6:	e025      	b.n	8000e44 <_ZN4core3fmt5Write10write_char17h30d0e8c8c9ed8595E+0x7c>
 8000df8:	2002      	movs	r0, #2
 8000dfa:	460a      	mov	r2, r1
 8000dfc:	f360 129f 	bfi	r2, r0, #6, #26
 8000e00:	f5b1 3f80 	cmp.w	r1, #65536	; 0x10000
 8000e04:	d20d      	bcs.n	8000e22 <_ZN4core3fmt5Write10write_char17h30d0e8c8c9ed8595E+0x5a>
 8000e06:	f88d 2006 	strb.w	r2, [sp, #6]
 8000e0a:	098a      	lsrs	r2, r1, #6
 8000e0c:	f360 129f 	bfi	r2, r0, #6, #26
 8000e10:	20e0      	movs	r0, #224	; 0xe0
 8000e12:	f88d 2005 	strb.w	r2, [sp, #5]
 8000e16:	ea40 3011 	orr.w	r0, r0, r1, lsr #12
 8000e1a:	f88d 0004 	strb.w	r0, [sp, #4]
 8000e1e:	2203      	movs	r2, #3
 8000e20:	e012      	b.n	8000e48 <_ZN4core3fmt5Write10write_char17h30d0e8c8c9ed8595E+0x80>
 8000e22:	f88d 2007 	strb.w	r2, [sp, #7]
 8000e26:	098a      	lsrs	r2, r1, #6
 8000e28:	f360 129f 	bfi	r2, r0, #6, #26
 8000e2c:	f88d 2006 	strb.w	r2, [sp, #6]
 8000e30:	0b0a      	lsrs	r2, r1, #12
 8000e32:	f360 129f 	bfi	r2, r0, #6, #26
 8000e36:	f88d 2005 	strb.w	r2, [sp, #5]
 8000e3a:	0c88      	lsrs	r0, r1, #18
 8000e3c:	211e      	movs	r1, #30
 8000e3e:	2204      	movs	r2, #4
 8000e40:	f361 00df 	bfi	r0, r1, #3, #29
 8000e44:	f88d 0004 	strb.w	r0, [sp, #4]
 8000e48:	a801      	add	r0, sp, #4
 8000e4a:	4611      	mov	r1, r2
 8000e4c:	f7ff ffb0 	bl	8000db0 <_defmt_write>
 8000e50:	2000      	movs	r0, #0
 8000e52:	b002      	add	sp, #8
 8000e54:	bd80      	pop	{r7, pc}

08000e56 <_ZN4core3fmt5Write9write_fmt17h1777e7986c388828E>:
 8000e56:	460a      	mov	r2, r1
 8000e58:	f242 41e8 	movw	r1, #9448	; 0x24e8
 8000e5c:	f6c0 0100 	movt	r1, #2048	; 0x800
 8000e60:	f000 b90b 	b.w	800107a <_ZN4core3fmt5write17hf33c697b89227f47E>

08000e64 <_ZN5defmt6export3f3217h0f1b0111421a6a02E>:
 8000e64:	b580      	push	{r7, lr}
 8000e66:	466f      	mov	r7, sp
 8000e68:	b082      	sub	sp, #8
 8000e6a:	6800      	ldr	r0, [r0, #0]
 8000e6c:	2104      	movs	r1, #4
 8000e6e:	9001      	str	r0, [sp, #4]
 8000e70:	a801      	add	r0, sp, #4
 8000e72:	f7ff ff9d 	bl	8000db0 <_defmt_write>
 8000e76:	b002      	add	sp, #8
 8000e78:	bd80      	pop	{r7, pc}

08000e7a <_ZN5defmt6export4istr17hdd2fc03afd69e1daE>:
 8000e7a:	b580      	push	{r7, lr}
 8000e7c:	466f      	mov	r7, sp
 8000e7e:	b082      	sub	sp, #8
 8000e80:	8800      	ldrh	r0, [r0, #0]
 8000e82:	2102      	movs	r1, #2
 8000e84:	f827 0c02 	strh.w	r0, [r7, #-2]
 8000e88:	1eb8      	subs	r0, r7, #2
 8000e8a:	f7ff ff91 	bl	8000db0 <_defmt_write>
 8000e8e:	b002      	add	sp, #8
 8000e90:	bd80      	pop	{r7, pc}

08000e92 <_ZN5defmt6export7display17h7d8d43659c23c5d3E>:
 8000e92:	b580      	push	{r7, lr}
 8000e94:	466f      	mov	r7, sp
 8000e96:	b08c      	sub	sp, #48	; 0x30
 8000e98:	e9cd 0101 	strd	r0, r1, [sp, #4]
 8000e9c:	2000      	movs	r0, #0
 8000e9e:	9007      	str	r0, [sp, #28]
 8000ea0:	2001      	movs	r0, #1
 8000ea2:	9004      	str	r0, [sp, #16]
 8000ea4:	f242 5100 	movw	r1, #9472	; 0x2500
 8000ea8:	9006      	str	r0, [sp, #24]
 8000eaa:	a809      	add	r0, sp, #36	; 0x24
 8000eac:	9005      	str	r0, [sp, #20]
 8000eae:	f640 50c1 	movw	r0, #3521	; 0xdc1
 8000eb2:	f6c0 0000 	movt	r0, #2048	; 0x800
 8000eb6:	f6c0 0100 	movt	r1, #2048	; 0x800
 8000eba:	900a      	str	r0, [sp, #40]	; 0x28
 8000ebc:	a801      	add	r0, sp, #4
 8000ebe:	9103      	str	r1, [sp, #12]
 8000ec0:	a903      	add	r1, sp, #12
 8000ec2:	9009      	str	r0, [sp, #36]	; 0x24
 8000ec4:	1e78      	subs	r0, r7, #1
 8000ec6:	f7ff ffc6 	bl	8000e56 <_ZN4core3fmt5Write9write_fmt17h1777e7986c388828E>
 8000eca:	f242 5008 	movw	r0, #9480	; 0x2508
 8000ece:	2101      	movs	r1, #1
 8000ed0:	f6c0 0000 	movt	r0, #2048	; 0x800
 8000ed4:	f7ff ff6c 	bl	8000db0 <_defmt_write>
 8000ed8:	b00c      	add	sp, #48	; 0x30
 8000eda:	bd80      	pop	{r7, pc}

08000edc <_ZN5defmt6export6header17he396f0078886fb2fE>:
 8000edc:	b580      	push	{r7, lr}
 8000ede:	466f      	mov	r7, sp
 8000ee0:	b082      	sub	sp, #8
 8000ee2:	8800      	ldrh	r0, [r0, #0]
 8000ee4:	2102      	movs	r1, #2
 8000ee6:	f827 0c02 	strh.w	r0, [r7, #-2]
 8000eea:	1eb8      	subs	r0, r7, #2
 8000eec:	f7ff ff60 	bl	8000db0 <_defmt_write>
 8000ef0:	f7ff fc4f 	bl	8000792 <_defmt_timestamp>
 8000ef4:	b002      	add	sp, #8
 8000ef6:	bd80      	pop	{r7, pc}

08000ef8 <_ZN60_$LT$defmt..export..FmtWrite$u20$as$u20$core..fmt..Write$GT$9write_str17h8a0515749897eb1bE>:
 8000ef8:	b580      	push	{r7, lr}
 8000efa:	466f      	mov	r7, sp
 8000efc:	4608      	mov	r0, r1
 8000efe:	4611      	mov	r1, r2
 8000f00:	f7ff ff56 	bl	8000db0 <_defmt_write>
 8000f04:	2000      	movs	r0, #0
 8000f06:	bd80      	pop	{r7, pc}

08000f08 <__defmt_default_timestamp>:
 8000f08:	4770      	bx	lr

08000f0a <__defmt_default_panic>:
 8000f0a:	b580      	push	{r7, lr}
 8000f0c:	466f      	mov	r7, sp
 8000f0e:	f000 f800 	bl	8000f12 <_ZN5defmt13default_panic19panic_cold_explicit17hbb8bb4568e76df3fE>

08000f12 <_ZN5defmt13default_panic19panic_cold_explicit17hbb8bb4568e76df3fE>:
 8000f12:	b580      	push	{r7, lr}
 8000f14:	466f      	mov	r7, sp
 8000f16:	f242 5060 	movw	r0, #9568	; 0x2560
 8000f1a:	f6c0 0000 	movt	r0, #2048	; 0x800
 8000f1e:	f000 f88f 	bl	8001040 <_ZN4core9panicking14panic_explicit17hb802790f4b26562dE>

08000f22 <_ZN73_$LT$core..panic..panic_info..PanicInfo$u20$as$u20$core..fmt..Display$GT$3fmt17h951b871c2a1d5fa4E>:
 8000f22:	b5f0      	push	{r4, r5, r6, r7, lr}
 8000f24:	af03      	add	r7, sp, #12
 8000f26:	f84d 8d04 	str.w	r8, [sp, #-4]!
 8000f2a:	b08c      	sub	sp, #48	; 0x30
 8000f2c:	e9d1 6505 	ldrd	r6, r5, [r1, #20]
 8000f30:	f242 51dc 	movw	r1, #9692	; 0x25dc
 8000f34:	68ec      	ldr	r4, [r5, #12]
 8000f36:	4680      	mov	r8, r0
 8000f38:	f6c0 0100 	movt	r1, #2048	; 0x800
 8000f3c:	220c      	movs	r2, #12
 8000f3e:	4630      	mov	r0, r6
 8000f40:	47a0      	blx	r4
 8000f42:	b120      	cbz	r0, 8000f4e <_ZN73_$LT$core..panic..panic_info..PanicInfo$u20$as$u20$core..fmt..Display$GT$3fmt17h951b871c2a1d5fa4E+0x2c>
 8000f44:	2001      	movs	r0, #1
 8000f46:	b00c      	add	sp, #48	; 0x30
 8000f48:	f85d 8b04 	ldr.w	r8, [sp], #4
 8000f4c:	bdf0      	pop	{r4, r5, r6, r7, pc}
 8000f4e:	2100      	movs	r1, #0
 8000f50:	f242 52c4 	movw	r2, #9668	; 0x25c4
 8000f54:	9104      	str	r1, [sp, #16]
 8000f56:	2103      	movs	r1, #3
 8000f58:	f8d8 0018 	ldr.w	r0, [r8, #24]
 8000f5c:	f6c0 0200 	movt	r2, #2048	; 0x800
 8000f60:	9101      	str	r1, [sp, #4]
 8000f62:	9103      	str	r1, [sp, #12]
 8000f64:	a906      	add	r1, sp, #24
 8000f66:	9200      	str	r2, [sp, #0]
 8000f68:	f100 020c 	add.w	r2, r0, #12
 8000f6c:	9102      	str	r1, [sp, #8]
 8000f6e:	f641 4191 	movw	r1, #7313	; 0x1c91
 8000f72:	f6c0 0100 	movt	r1, #2048	; 0x800
 8000f76:	e9cd 1209 	strd	r1, r2, [sp, #36]	; 0x24
 8000f7a:	466a      	mov	r2, sp
 8000f7c:	910b      	str	r1, [sp, #44]	; 0x2c
 8000f7e:	f100 0108 	add.w	r1, r0, #8
 8000f82:	9108      	str	r1, [sp, #32]
 8000f84:	f641 517f 	movw	r1, #7551	; 0x1d7f
 8000f88:	f6c0 0100 	movt	r1, #2048	; 0x800
 8000f8c:	e9cd 0106 	strd	r0, r1, [sp, #24]
 8000f90:	4630      	mov	r0, r6
 8000f92:	4629      	mov	r1, r5
 8000f94:	f000 f871 	bl	800107a <_ZN4core3fmt5write17hf33c697b89227f47E>
 8000f98:	b120      	cbz	r0, 8000fa4 <_ZN73_$LT$core..panic..panic_info..PanicInfo$u20$as$u20$core..fmt..Display$GT$3fmt17h951b871c2a1d5fa4E+0x82>
 8000f9a:	2001      	movs	r0, #1
 8000f9c:	b00c      	add	sp, #48	; 0x30
 8000f9e:	f85d 8b04 	ldr.w	r8, [sp], #4
 8000fa2:	bdf0      	pop	{r4, r5, r6, r7, pc}
 8000fa4:	f242 51e8 	movw	r1, #9704	; 0x25e8
 8000fa8:	4630      	mov	r0, r6
 8000faa:	f6c0 0100 	movt	r1, #2048	; 0x800
 8000fae:	2202      	movs	r2, #2
 8000fb0:	47a0      	blx	r4
 8000fb2:	b120      	cbz	r0, 8000fbe <_ZN73_$LT$core..panic..panic_info..PanicInfo$u20$as$u20$core..fmt..Display$GT$3fmt17h951b871c2a1d5fa4E+0x9c>
 8000fb4:	2001      	movs	r0, #1
 8000fb6:	b00c      	add	sp, #48	; 0x30
 8000fb8:	f85d 8b04 	ldr.w	r8, [sp], #4
 8000fbc:	bdf0      	pop	{r4, r5, r6, r7, pc}
 8000fbe:	4630      	mov	r0, r6
 8000fc0:	4629      	mov	r1, r5
 8000fc2:	4642      	mov	r2, r8
 8000fc4:	f000 f859 	bl	800107a <_ZN4core3fmt5write17hf33c697b89227f47E>
 8000fc8:	b00c      	add	sp, #48	; 0x30
 8000fca:	f85d 8b04 	ldr.w	r8, [sp], #4
 8000fce:	bdf0      	pop	{r4, r5, r6, r7, pc}

08000fd0 <_ZN4core9panicking9panic_fmt17ha28037c9d7b27c20E>:
 8000fd0:	b580      	push	{r7, lr}
 8000fd2:	466f      	mov	r7, sp
 8000fd4:	b088      	sub	sp, #32
 8000fd6:	e890 4174 	ldmia.w	r0, {r2, r4, r5, r6, r8, lr}
 8000fda:	46ec      	mov	ip, sp
 8000fdc:	4663      	mov	r3, ip
 8000fde:	2001      	movs	r0, #1
 8000fe0:	e883 4174 	stmia.w	r3, {r2, r4, r5, r6, r8, lr}
 8000fe4:	f8ad 001c 	strh.w	r0, [sp, #28]
 8000fe8:	4660      	mov	r0, ip
 8000fea:	9106      	str	r1, [sp, #24]
 8000fec:	f7ff fc0d 	bl	800080a <rust_begin_unwind>

08000ff0 <_ZN4core9panicking18panic_nounwind_fmt17hb4a9ee4ee9ec8231E>:
 8000ff0:	b580      	push	{r7, lr}
 8000ff2:	466f      	mov	r7, sp
 8000ff4:	b088      	sub	sp, #32
 8000ff6:	e890 4370 	ldmia.w	r0, {r4, r5, r6, r8, r9, lr}
 8000ffa:	46ec      	mov	ip, sp
 8000ffc:	4663      	mov	r3, ip
 8000ffe:	2000      	movs	r0, #0
 8001000:	e883 4370 	stmia.w	r3, {r4, r5, r6, r8, r9, lr}
 8001004:	f88d 001c 	strb.w	r0, [sp, #28]
 8001008:	4660      	mov	r0, ip
 800100a:	f88d 101d 	strb.w	r1, [sp, #29]
 800100e:	9206      	str	r2, [sp, #24]
 8001010:	f7ff fbfb 	bl	800080a <rust_begin_unwind>

08001014 <_ZN4core9panicking14panic_nounwind17h080f20ecd2cd3cd6E>:
 8001014:	b580      	push	{r7, lr}
 8001016:	466f      	mov	r7, sp
 8001018:	b088      	sub	sp, #32
 800101a:	2200      	movs	r2, #0
 800101c:	e9cd 0106 	strd	r0, r1, [sp, #24]
 8001020:	9204      	str	r2, [sp, #16]
 8001022:	2301      	movs	r3, #1
 8001024:	9203      	str	r2, [sp, #12]
 8001026:	2204      	movs	r2, #4
 8001028:	9202      	str	r2, [sp, #8]
 800102a:	f242 6208 	movw	r2, #9736	; 0x2608
 800102e:	f6c0 0200 	movt	r2, #2048	; 0x800
 8001032:	4668      	mov	r0, sp
 8001034:	2100      	movs	r1, #0
 8001036:	9301      	str	r3, [sp, #4]
 8001038:	ab06      	add	r3, sp, #24
 800103a:	9300      	str	r3, [sp, #0]
 800103c:	f7ff ffd8 	bl	8000ff0 <_ZN4core9panicking18panic_nounwind_fmt17hb4a9ee4ee9ec8231E>

08001040 <_ZN4core9panicking14panic_explicit17hb802790f4b26562dE>:
 8001040:	b580      	push	{r7, lr}
 8001042:	466f      	mov	r7, sp
 8001044:	b088      	sub	sp, #32
 8001046:	4601      	mov	r1, r0
 8001048:	2000      	movs	r0, #0
 800104a:	9004      	str	r0, [sp, #16]
 800104c:	2001      	movs	r0, #1
 800104e:	9001      	str	r0, [sp, #4]
 8001050:	f242 5200 	movw	r2, #9472	; 0x2500
 8001054:	9003      	str	r0, [sp, #12]
 8001056:	a806      	add	r0, sp, #24
 8001058:	9002      	str	r0, [sp, #8]
 800105a:	f641 507f 	movw	r0, #7551	; 0x1d7f
 800105e:	f6c0 0000 	movt	r0, #2048	; 0x800
 8001062:	f6c0 0200 	movt	r2, #2048	; 0x800
 8001066:	9007      	str	r0, [sp, #28]
 8001068:	f242 6028 	movw	r0, #9768	; 0x2628
 800106c:	f6c0 0000 	movt	r0, #2048	; 0x800
 8001070:	9200      	str	r2, [sp, #0]
 8001072:	9006      	str	r0, [sp, #24]
 8001074:	4668      	mov	r0, sp
 8001076:	f7ff ffab 	bl	8000fd0 <_ZN4core9panicking9panic_fmt17ha28037c9d7b27c20E>

0800107a <_ZN4core3fmt5write17hf33c697b89227f47E>:
 800107a:	b5f0      	push	{r4, r5, r6, r7, lr}
 800107c:	af03      	add	r7, sp, #12
 800107e:	e92d 0f00 	stmdb	sp!, {r8, r9, sl, fp}
 8001082:	b08d      	sub	sp, #52	; 0x34
 8001084:	2303      	movs	r3, #3
 8001086:	6916      	ldr	r6, [r2, #16]
 8001088:	f88d 3030 	strb.w	r3, [sp, #48]	; 0x30
 800108c:	2320      	movs	r3, #32
 800108e:	9308      	str	r3, [sp, #32]
 8001090:	2300      	movs	r3, #0
 8001092:	2e00      	cmp	r6, #0
 8001094:	e9cd 130a 	strd	r1, r3, [sp, #40]	; 0x28
 8001098:	9009      	str	r0, [sp, #36]	; 0x24
 800109a:	9306      	str	r3, [sp, #24]
 800109c:	9304      	str	r3, [sp, #16]
 800109e:	d067      	beq.n	8001170 <_ZN4core3fmt5write17hf33c697b89227f47E+0xf6>
 80010a0:	6950      	ldr	r0, [r2, #20]
 80010a2:	2800      	cmp	r0, #0
 80010a4:	f000 808d 	beq.w	80011c2 <_ZN4core3fmt5write17hf33c697b89227f47E+0x148>
 80010a8:	f8d2 a000 	ldr.w	sl, [r2]
 80010ac:	0141      	lsls	r1, r0, #5
 80010ae:	f8d2 b008 	ldr.w	fp, [r2, #8]
 80010b2:	3801      	subs	r0, #1
 80010b4:	f020 4078 	bic.w	r0, r0, #4160749568	; 0xf8000000
 80010b8:	f04f 0800 	mov.w	r8, #0
 80010bc:	f04f 0900 	mov.w	r9, #0
 80010c0:	3001      	adds	r0, #1
 80010c2:	9202      	str	r2, [sp, #8]
 80010c4:	9103      	str	r1, [sp, #12]
 80010c6:	9001      	str	r0, [sp, #4]
 80010c8:	eb0a 0109 	add.w	r1, sl, r9
 80010cc:	684a      	ldr	r2, [r1, #4]
 80010ce:	b13a      	cbz	r2, 80010e0 <_ZN4core3fmt5write17hf33c697b89227f47E+0x66>
 80010d0:	e9dd 0309 	ldrd	r0, r3, [sp, #36]	; 0x24
 80010d4:	6809      	ldr	r1, [r1, #0]
 80010d6:	68db      	ldr	r3, [r3, #12]
 80010d8:	4798      	blx	r3
 80010da:	2800      	cmp	r0, #0
 80010dc:	f040 8082 	bne.w	80011e4 <_ZN4core3fmt5write17hf33c697b89227f47E+0x16a>
 80010e0:	eb06 0008 	add.w	r0, r6, r8
 80010e4:	6903      	ldr	r3, [r0, #16]
 80010e6:	eb06 0089 	add.w	r0, r6, r9, lsl #2
 80010ea:	e9d0 2102 	ldrd	r2, r1, [r0, #8]
 80010ee:	7f05      	ldrb	r5, [r0, #28]
 80010f0:	6984      	ldr	r4, [r0, #24]
 80010f2:	9308      	str	r3, [sp, #32]
 80010f4:	f88d 5030 	strb.w	r5, [sp, #48]	; 0x30
 80010f8:	940b      	str	r4, [sp, #44]	; 0x2c
 80010fa:	b172      	cbz	r2, 800111a <_ZN4core3fmt5write17hf33c697b89227f47E+0xa0>
 80010fc:	2a01      	cmp	r2, #1
 80010fe:	d103      	bne.n	8001108 <_ZN4core3fmt5write17hf33c697b89227f47E+0x8e>
 8001100:	eb0b 01c1 	add.w	r1, fp, r1, lsl #3
 8001104:	684a      	ldr	r2, [r1, #4]
 8001106:	b13a      	cbz	r2, 8001118 <_ZN4core3fmt5write17hf33c697b89227f47E+0x9e>
 8001108:	2200      	movs	r2, #0
 800110a:	f856 3008 	ldr.w	r3, [r6, r8]
 800110e:	e9cd 2104 	strd	r2, r1, [sp, #16]
 8001112:	2b02      	cmp	r3, #2
 8001114:	d108      	bne.n	8001128 <_ZN4core3fmt5write17hf33c697b89227f47E+0xae>
 8001116:	e00e      	b.n	8001136 <_ZN4core3fmt5write17hf33c697b89227f47E+0xbc>
 8001118:	6809      	ldr	r1, [r1, #0]
 800111a:	2201      	movs	r2, #1
 800111c:	f856 3008 	ldr.w	r3, [r6, r8]
 8001120:	e9cd 2104 	strd	r2, r1, [sp, #16]
 8001124:	2b02      	cmp	r3, #2
 8001126:	d006      	beq.n	8001136 <_ZN4core3fmt5write17hf33c697b89227f47E+0xbc>
 8001128:	6841      	ldr	r1, [r0, #4]
 800112a:	2b01      	cmp	r3, #1
 800112c:	d106      	bne.n	800113c <_ZN4core3fmt5write17hf33c697b89227f47E+0xc2>
 800112e:	eb0b 01c1 	add.w	r1, fp, r1, lsl #3
 8001132:	684a      	ldr	r2, [r1, #4]
 8001134:	b10a      	cbz	r2, 800113a <_ZN4core3fmt5write17hf33c697b89227f47E+0xc0>
 8001136:	2200      	movs	r2, #0
 8001138:	e001      	b.n	800113e <_ZN4core3fmt5write17hf33c697b89227f47E+0xc4>
 800113a:	6809      	ldr	r1, [r1, #0]
 800113c:	2201      	movs	r2, #1
 800113e:	6943      	ldr	r3, [r0, #20]
 8001140:	9107      	str	r1, [sp, #28]
 8001142:	9206      	str	r2, [sp, #24]
 8001144:	eb0b 01c3 	add.w	r1, fp, r3, lsl #3
 8001148:	f85b 0033 	ldr.w	r0, [fp, r3, lsl #3]
 800114c:	684b      	ldr	r3, [r1, #4]
 800114e:	a904      	add	r1, sp, #16
 8001150:	4798      	blx	r3
 8001152:	2800      	cmp	r0, #0
 8001154:	d146      	bne.n	80011e4 <_ZN4core3fmt5write17hf33c697b89227f47E+0x16a>
 8001156:	9803      	ldr	r0, [sp, #12]
 8001158:	f108 0820 	add.w	r8, r8, #32
 800115c:	f109 0908 	add.w	r9, r9, #8
 8001160:	4540      	cmp	r0, r8
 8001162:	d1b1      	bne.n	80010c8 <_ZN4core3fmt5write17hf33c697b89227f47E+0x4e>
 8001164:	e9dd b201 	ldrd	fp, r2, [sp, #4]
 8001168:	6850      	ldr	r0, [r2, #4]
 800116a:	4583      	cmp	fp, r0
 800116c:	d32e      	bcc.n	80011cc <_ZN4core3fmt5write17hf33c697b89227f47E+0x152>
 800116e:	e03e      	b.n	80011ee <_ZN4core3fmt5write17hf33c697b89227f47E+0x174>
 8001170:	68d0      	ldr	r0, [r2, #12]
 8001172:	b330      	cbz	r0, 80011c2 <_ZN4core3fmt5write17hf33c697b89227f47E+0x148>
 8001174:	00c6      	lsls	r6, r0, #3
 8001176:	3801      	subs	r0, #1
 8001178:	f020 4060 	bic.w	r0, r0, #3758096384	; 0xe0000000
 800117c:	6894      	ldr	r4, [r2, #8]
 800117e:	f8d2 9000 	ldr.w	r9, [r2]
 8001182:	f100 0b01 	add.w	fp, r0, #1
 8001186:	f10d 0810 	add.w	r8, sp, #16
 800118a:	4692      	mov	sl, r2
 800118c:	2500      	movs	r5, #0
 800118e:	eb09 01c5 	add.w	r1, r9, r5, lsl #3
 8001192:	684a      	ldr	r2, [r1, #4]
 8001194:	b12a      	cbz	r2, 80011a2 <_ZN4core3fmt5write17hf33c697b89227f47E+0x128>
 8001196:	e9dd 0309 	ldrd	r0, r3, [sp, #36]	; 0x24
 800119a:	6809      	ldr	r1, [r1, #0]
 800119c:	68db      	ldr	r3, [r3, #12]
 800119e:	4798      	blx	r3
 80011a0:	bb00      	cbnz	r0, 80011e4 <_ZN4core3fmt5write17hf33c697b89227f47E+0x16a>
 80011a2:	eb04 01c5 	add.w	r1, r4, r5, lsl #3
 80011a6:	f854 0035 	ldr.w	r0, [r4, r5, lsl #3]
 80011aa:	684a      	ldr	r2, [r1, #4]
 80011ac:	4641      	mov	r1, r8
 80011ae:	4790      	blx	r2
 80011b0:	b9c0      	cbnz	r0, 80011e4 <_ZN4core3fmt5write17hf33c697b89227f47E+0x16a>
 80011b2:	3501      	adds	r5, #1
 80011b4:	3e08      	subs	r6, #8
 80011b6:	d1ea      	bne.n	800118e <_ZN4core3fmt5write17hf33c697b89227f47E+0x114>
 80011b8:	4652      	mov	r2, sl
 80011ba:	6850      	ldr	r0, [r2, #4]
 80011bc:	4583      	cmp	fp, r0
 80011be:	d305      	bcc.n	80011cc <_ZN4core3fmt5write17hf33c697b89227f47E+0x152>
 80011c0:	e015      	b.n	80011ee <_ZN4core3fmt5write17hf33c697b89227f47E+0x174>
 80011c2:	f04f 0b00 	mov.w	fp, #0
 80011c6:	6850      	ldr	r0, [r2, #4]
 80011c8:	4583      	cmp	fp, r0
 80011ca:	d210      	bcs.n	80011ee <_ZN4core3fmt5write17hf33c697b89227f47E+0x174>
 80011cc:	6812      	ldr	r2, [r2, #0]
 80011ce:	465e      	mov	r6, fp
 80011d0:	e9dd 0109 	ldrd	r0, r1, [sp, #36]	; 0x24
 80011d4:	68cb      	ldr	r3, [r1, #12]
 80011d6:	f852 103b 	ldr.w	r1, [r2, fp, lsl #3]
 80011da:	eb02 02cb 	add.w	r2, r2, fp, lsl #3
 80011de:	6852      	ldr	r2, [r2, #4]
 80011e0:	4798      	blx	r3
 80011e2:	b120      	cbz	r0, 80011ee <_ZN4core3fmt5write17hf33c697b89227f47E+0x174>
 80011e4:	2001      	movs	r0, #1
 80011e6:	b00d      	add	sp, #52	; 0x34
 80011e8:	e8bd 0f00 	ldmia.w	sp!, {r8, r9, sl, fp}
 80011ec:	bdf0      	pop	{r4, r5, r6, r7, pc}
 80011ee:	2000      	movs	r0, #0
 80011f0:	b00d      	add	sp, #52	; 0x34
 80011f2:	e8bd 0f00 	ldmia.w	sp!, {r8, r9, sl, fp}
 80011f6:	bdf0      	pop	{r4, r5, r6, r7, pc}

080011f8 <_ZN4core3fmt9Formatter12pad_integral17hcce0ba0935f0f978E>:
 80011f8:	b5f0      	push	{r4, r5, r6, r7, lr}
 80011fa:	af03      	add	r7, sp, #12
 80011fc:	e92d 0f00 	stmdb	sp!, {r8, r9, sl, fp}
 8001200:	b087      	sub	sp, #28
 8001202:	f8d7 900c 	ldr.w	r9, [r7, #12]
 8001206:	461c      	mov	r4, r3
 8001208:	4615      	mov	r5, r2
 800120a:	2900      	cmp	r1, #0
 800120c:	d052      	beq.n	80012b4 <_ZN4core3fmt9Formatter12pad_integral17hcce0ba0935f0f978E+0xbc>
 800120e:	f8d0 b01c 	ldr.w	fp, [r0, #28]
 8001212:	222b      	movs	r2, #43	; 0x2b
 8001214:	f01b 0101 	ands.w	r1, fp, #1
 8001218:	bf08      	it	eq
 800121a:	f44f 1288 	moveq.w	r2, #1114112	; 0x110000
 800121e:	eb01 0a09 	add.w	sl, r1, r9
 8001222:	f8d7 8008 	ldr.w	r8, [r7, #8]
 8001226:	ea5f 714b 	movs.w	r1, fp, lsl #29
 800122a:	d54d      	bpl.n	80012c8 <_ZN4core3fmt9Formatter12pad_integral17hcce0ba0935f0f978E+0xd0>
 800122c:	2c10      	cmp	r4, #16
 800122e:	9205      	str	r2, [sp, #20]
 8001230:	f080 8078 	bcs.w	8001324 <_ZN4core3fmt9Formatter12pad_integral17hcce0ba0935f0f978E+0x12c>
 8001234:	2c00      	cmp	r4, #0
 8001236:	f000 80ab 	beq.w	8001390 <_ZN4core3fmt9Formatter12pad_integral17hcce0ba0935f0f978E+0x198>
 800123a:	f004 0c03 	and.w	ip, r4, #3
 800123e:	08a2      	lsrs	r2, r4, #2
 8001240:	f04f 0100 	mov.w	r1, #0
 8001244:	f000 80a6 	beq.w	8001394 <_ZN4core3fmt9Formatter12pad_integral17hcce0ba0935f0f978E+0x19c>
 8001248:	f002 0203 	and.w	r2, r2, #3
 800124c:	f8cd 8010 	str.w	r8, [sp, #16]
 8001250:	f105 0801 	add.w	r8, r5, #1
 8001254:	e9cd 4902 	strd	r4, r9, [sp, #8]
 8001258:	eba1 0e82 	sub.w	lr, r1, r2, lsl #2
 800125c:	f06f 0203 	mvn.w	r2, #3
 8001260:	9506      	str	r5, [sp, #24]
 8001262:	eb08 0502 	add.w	r5, r8, r2
 8001266:	3204      	adds	r2, #4
 8001268:	f995 3003 	ldrsb.w	r3, [r5, #3]
 800126c:	f995 4006 	ldrsb.w	r4, [r5, #6]
 8001270:	f995 6005 	ldrsb.w	r6, [r5, #5]
 8001274:	f113 0f41 	cmn.w	r3, #65	; 0x41
 8001278:	f995 5004 	ldrsb.w	r5, [r5, #4]
 800127c:	bfc8      	it	gt
 800127e:	3101      	addgt	r1, #1
 8001280:	eb0e 0302 	add.w	r3, lr, r2
 8001284:	f115 0f41 	cmn.w	r5, #65	; 0x41
 8001288:	bfc8      	it	gt
 800128a:	3101      	addgt	r1, #1
 800128c:	f116 0f41 	cmn.w	r6, #65	; 0x41
 8001290:	bfc8      	it	gt
 8001292:	3101      	addgt	r1, #1
 8001294:	f114 0f41 	cmn.w	r4, #65	; 0x41
 8001298:	bfc8      	it	gt
 800129a:	3101      	addgt	r1, #1
 800129c:	3304      	adds	r3, #4
 800129e:	d1e0      	bne.n	8001262 <_ZN4core3fmt9Formatter12pad_integral17hcce0ba0935f0f978E+0x6a>
 80012a0:	f8dd 8010 	ldr.w	r8, [sp, #16]
 80012a4:	3204      	adds	r2, #4
 80012a6:	9d06      	ldr	r5, [sp, #24]
 80012a8:	e9dd 4902 	ldrd	r4, r9, [sp, #8]
 80012ac:	f1bc 0f00 	cmp.w	ip, #0
 80012b0:	d174      	bne.n	800139c <_ZN4core3fmt9Formatter12pad_integral17hcce0ba0935f0f978E+0x1a4>
 80012b2:	e08b      	b.n	80013cc <_ZN4core3fmt9Formatter12pad_integral17hcce0ba0935f0f978E+0x1d4>
 80012b4:	f8d0 b01c 	ldr.w	fp, [r0, #28]
 80012b8:	f109 0a01 	add.w	sl, r9, #1
 80012bc:	222d      	movs	r2, #45	; 0x2d
 80012be:	f8d7 8008 	ldr.w	r8, [r7, #8]
 80012c2:	ea5f 714b 	movs.w	r1, fp, lsl #29
 80012c6:	d4b1      	bmi.n	800122c <_ZN4core3fmt9Formatter12pad_integral17hcce0ba0935f0f978E+0x34>
 80012c8:	2500      	movs	r5, #0
 80012ca:	6801      	ldr	r1, [r0, #0]
 80012cc:	2900      	cmp	r1, #0
 80012ce:	f000 8083 	beq.w	80013d8 <_ZN4core3fmt9Formatter12pad_integral17hcce0ba0935f0f978E+0x1e0>
 80012d2:	9506      	str	r5, [sp, #24]
 80012d4:	f8cd 8010 	str.w	r8, [sp, #16]
 80012d8:	f8d0 8004 	ldr.w	r8, [r0, #4]
 80012dc:	45d0      	cmp	r8, sl
 80012de:	d912      	bls.n	8001306 <_ZN4core3fmt9Formatter12pad_integral17hcce0ba0935f0f978E+0x10e>
 80012e0:	ea5f 710b 	movs.w	r1, fp, lsl #28
 80012e4:	d426      	bmi.n	8001334 <_ZN4core3fmt9Formatter12pad_integral17hcce0ba0935f0f978E+0x13c>
 80012e6:	f890 1020 	ldrb.w	r1, [r0, #32]
 80012ea:	eba8 030a 	sub.w	r3, r8, sl
 80012ee:	9205      	str	r2, [sp, #20]
 80012f0:	46ca      	mov	sl, r9
 80012f2:	46a3      	mov	fp, r4
 80012f4:	4699      	mov	r9, r3
 80012f6:	e8df f001 	tbb	[pc, r1]
 80012fa:	0299      	.short	0x0299
 80012fc:	0293      	.short	0x0293
 80012fe:	4649      	mov	r1, r9
 8001300:	f04f 0900 	mov.w	r9, #0
 8001304:	e092      	b.n	800142c <_ZN4core3fmt9Formatter12pad_integral17hcce0ba0935f0f978E+0x234>
 8001306:	4621      	mov	r1, r4
 8001308:	e9d0 4605 	ldrd	r4, r6, [r0, #20]
 800130c:	9100      	str	r1, [sp, #0]
 800130e:	4631      	mov	r1, r6
 8001310:	9b06      	ldr	r3, [sp, #24]
 8001312:	4620      	mov	r0, r4
 8001314:	f000 f8d8 	bl	80014c8 <_ZN4core3fmt9Formatter12pad_integral12write_prefix17h2245a2129ac7bc92E>
 8001318:	b3b0      	cbz	r0, 8001388 <_ZN4core3fmt9Formatter12pad_integral17hcce0ba0935f0f978E+0x190>
 800131a:	2001      	movs	r0, #1
 800131c:	b007      	add	sp, #28
 800131e:	e8bd 0f00 	ldmia.w	sp!, {r8, r9, sl, fp}
 8001322:	bdf0      	pop	{r4, r5, r6, r7, pc}
 8001324:	4606      	mov	r6, r0
 8001326:	4628      	mov	r0, r5
 8001328:	4621      	mov	r1, r4
 800132a:	f000 fa0c 	bl	8001746 <_ZN4core3str5count14do_count_chars17h36d33959eb3204bdE>
 800132e:	4601      	mov	r1, r0
 8001330:	4630      	mov	r0, r6
 8001332:	e04b      	b.n	80013cc <_ZN4core3fmt9Formatter12pad_integral17hcce0ba0935f0f978E+0x1d4>
 8001334:	2130      	movs	r1, #48	; 0x30
 8001336:	f8d0 b010 	ldr.w	fp, [r0, #16]
 800133a:	4623      	mov	r3, r4
 800133c:	6101      	str	r1, [r0, #16]
 800133e:	2101      	movs	r1, #1
 8001340:	f890 5020 	ldrb.w	r5, [r0, #32]
 8001344:	e9d0 4605 	ldrd	r4, r6, [r0, #20]
 8001348:	f880 1020 	strb.w	r1, [r0, #32]
 800134c:	4631      	mov	r1, r6
 800134e:	9003      	str	r0, [sp, #12]
 8001350:	9300      	str	r3, [sp, #0]
 8001352:	4620      	mov	r0, r4
 8001354:	9b06      	ldr	r3, [sp, #24]
 8001356:	f000 f8b7 	bl	80014c8 <_ZN4core3fmt9Formatter12pad_integral12write_prefix17h2245a2129ac7bc92E>
 800135a:	4601      	mov	r1, r0
 800135c:	2001      	movs	r0, #1
 800135e:	2900      	cmp	r1, #0
 8001360:	d1dc      	bne.n	800131c <_ZN4core3fmt9Formatter12pad_integral17hcce0ba0935f0f978E+0x124>
 8001362:	9506      	str	r5, [sp, #24]
 8001364:	eba8 000a 	sub.w	r0, r8, sl
 8001368:	f8dd 8010 	ldr.w	r8, [sp, #16]
 800136c:	1c45      	adds	r5, r0, #1
 800136e:	3d01      	subs	r5, #1
 8001370:	d04b      	beq.n	800140a <_ZN4core3fmt9Formatter12pad_integral17hcce0ba0935f0f978E+0x212>
 8001372:	6932      	ldr	r2, [r6, #16]
 8001374:	4620      	mov	r0, r4
 8001376:	2130      	movs	r1, #48	; 0x30
 8001378:	4790      	blx	r2
 800137a:	2800      	cmp	r0, #0
 800137c:	d0f7      	beq.n	800136e <_ZN4core3fmt9Formatter12pad_integral17hcce0ba0935f0f978E+0x176>
 800137e:	2001      	movs	r0, #1
 8001380:	b007      	add	sp, #28
 8001382:	e8bd 0f00 	ldmia.w	sp!, {r8, r9, sl, fp}
 8001386:	bdf0      	pop	{r4, r5, r6, r7, pc}
 8001388:	68f3      	ldr	r3, [r6, #12]
 800138a:	4620      	mov	r0, r4
 800138c:	9904      	ldr	r1, [sp, #16]
 800138e:	e035      	b.n	80013fc <_ZN4core3fmt9Formatter12pad_integral17hcce0ba0935f0f978E+0x204>
 8001390:	2100      	movs	r1, #0
 8001392:	e01b      	b.n	80013cc <_ZN4core3fmt9Formatter12pad_integral17hcce0ba0935f0f978E+0x1d4>
 8001394:	2200      	movs	r2, #0
 8001396:	f1bc 0f00 	cmp.w	ip, #0
 800139a:	d017      	beq.n	80013cc <_ZN4core3fmt9Formatter12pad_integral17hcce0ba0935f0f978E+0x1d4>
 800139c:	56ab      	ldrsb	r3, [r5, r2]
 800139e:	f113 0f41 	cmn.w	r3, #65	; 0x41
 80013a2:	bfc8      	it	gt
 80013a4:	3101      	addgt	r1, #1
 80013a6:	f1bc 0f01 	cmp.w	ip, #1
 80013aa:	d00f      	beq.n	80013cc <_ZN4core3fmt9Formatter12pad_integral17hcce0ba0935f0f978E+0x1d4>
 80013ac:	442a      	add	r2, r5
 80013ae:	f992 3001 	ldrsb.w	r3, [r2, #1]
 80013b2:	f113 0f41 	cmn.w	r3, #65	; 0x41
 80013b6:	bfc8      	it	gt
 80013b8:	3101      	addgt	r1, #1
 80013ba:	f1bc 0f02 	cmp.w	ip, #2
 80013be:	d005      	beq.n	80013cc <_ZN4core3fmt9Formatter12pad_integral17hcce0ba0935f0f978E+0x1d4>
 80013c0:	f992 2002 	ldrsb.w	r2, [r2, #2]
 80013c4:	f112 0f41 	cmn.w	r2, #65	; 0x41
 80013c8:	bfc8      	it	gt
 80013ca:	3101      	addgt	r1, #1
 80013cc:	9a05      	ldr	r2, [sp, #20]
 80013ce:	448a      	add	sl, r1
 80013d0:	6801      	ldr	r1, [r0, #0]
 80013d2:	2900      	cmp	r1, #0
 80013d4:	f47f af7d 	bne.w	80012d2 <_ZN4core3fmt9Formatter12pad_integral17hcce0ba0935f0f978E+0xda>
 80013d8:	4621      	mov	r1, r4
 80013da:	e9d0 4605 	ldrd	r4, r6, [r0, #20]
 80013de:	9100      	str	r1, [sp, #0]
 80013e0:	4631      	mov	r1, r6
 80013e2:	462b      	mov	r3, r5
 80013e4:	4620      	mov	r0, r4
 80013e6:	f000 f86f 	bl	80014c8 <_ZN4core3fmt9Formatter12pad_integral12write_prefix17h2245a2129ac7bc92E>
 80013ea:	b120      	cbz	r0, 80013f6 <_ZN4core3fmt9Formatter12pad_integral17hcce0ba0935f0f978E+0x1fe>
 80013ec:	2001      	movs	r0, #1
 80013ee:	b007      	add	sp, #28
 80013f0:	e8bd 0f00 	ldmia.w	sp!, {r8, r9, sl, fp}
 80013f4:	bdf0      	pop	{r4, r5, r6, r7, pc}
 80013f6:	68f3      	ldr	r3, [r6, #12]
 80013f8:	4620      	mov	r0, r4
 80013fa:	4641      	mov	r1, r8
 80013fc:	464a      	mov	r2, r9
 80013fe:	b007      	add	sp, #28
 8001400:	e8bd 0f00 	ldmia.w	sp!, {r8, r9, sl, fp}
 8001404:	e8bd 40f0 	ldmia.w	sp!, {r4, r5, r6, r7, lr}
 8001408:	4718      	bx	r3
 800140a:	68f3      	ldr	r3, [r6, #12]
 800140c:	4620      	mov	r0, r4
 800140e:	4641      	mov	r1, r8
 8001410:	464a      	mov	r2, r9
 8001412:	4798      	blx	r3
 8001414:	b3b8      	cbz	r0, 8001486 <_ZN4core3fmt9Formatter12pad_integral17hcce0ba0935f0f978E+0x28e>
 8001416:	2001      	movs	r0, #1
 8001418:	b007      	add	sp, #28
 800141a:	e8bd 0f00 	ldmia.w	sp!, {r8, r9, sl, fp}
 800141e:	bdf0      	pop	{r4, r5, r6, r7, pc}
 8001420:	f109 0201 	add.w	r2, r9, #1
 8001424:	ea4f 0159 	mov.w	r1, r9, lsr #1
 8001428:	ea4f 0952 	mov.w	r9, r2, lsr #1
 800142c:	e9d0 6404 	ldrd	r6, r4, [r0, #16]
 8001430:	1c4d      	adds	r5, r1, #1
 8001432:	f8d0 8018 	ldr.w	r8, [r0, #24]
 8001436:	3d01      	subs	r5, #1
 8001438:	d00b      	beq.n	8001452 <_ZN4core3fmt9Formatter12pad_integral17hcce0ba0935f0f978E+0x25a>
 800143a:	f8d8 2010 	ldr.w	r2, [r8, #16]
 800143e:	4620      	mov	r0, r4
 8001440:	4631      	mov	r1, r6
 8001442:	4790      	blx	r2
 8001444:	2800      	cmp	r0, #0
 8001446:	d0f6      	beq.n	8001436 <_ZN4core3fmt9Formatter12pad_integral17hcce0ba0935f0f978E+0x23e>
 8001448:	2001      	movs	r0, #1
 800144a:	b007      	add	sp, #28
 800144c:	e8bd 0f00 	ldmia.w	sp!, {r8, r9, sl, fp}
 8001450:	bdf0      	pop	{r4, r5, r6, r7, pc}
 8001452:	f8cd b000 	str.w	fp, [sp]
 8001456:	4620      	mov	r0, r4
 8001458:	e9dd 2305 	ldrd	r2, r3, [sp, #20]
 800145c:	4641      	mov	r1, r8
 800145e:	f000 f833 	bl	80014c8 <_ZN4core3fmt9Formatter12pad_integral12write_prefix17h2245a2129ac7bc92E>
 8001462:	b120      	cbz	r0, 800146e <_ZN4core3fmt9Formatter12pad_integral17hcce0ba0935f0f978E+0x276>
 8001464:	2001      	movs	r0, #1
 8001466:	b007      	add	sp, #28
 8001468:	e8bd 0f00 	ldmia.w	sp!, {r8, r9, sl, fp}
 800146c:	bdf0      	pop	{r4, r5, r6, r7, pc}
 800146e:	f8d8 300c 	ldr.w	r3, [r8, #12]
 8001472:	4620      	mov	r0, r4
 8001474:	9904      	ldr	r1, [sp, #16]
 8001476:	4652      	mov	r2, sl
 8001478:	4798      	blx	r3
 800147a:	b178      	cbz	r0, 800149c <_ZN4core3fmt9Formatter12pad_integral17hcce0ba0935f0f978E+0x2a4>
 800147c:	2001      	movs	r0, #1
 800147e:	b007      	add	sp, #28
 8001480:	e8bd 0f00 	ldmia.w	sp!, {r8, r9, sl, fp}
 8001484:	bdf0      	pop	{r4, r5, r6, r7, pc}
 8001486:	9803      	ldr	r0, [sp, #12]
 8001488:	9906      	ldr	r1, [sp, #24]
 800148a:	f880 1020 	strb.w	r1, [r0, #32]
 800148e:	f8c0 b010 	str.w	fp, [r0, #16]
 8001492:	2000      	movs	r0, #0
 8001494:	b007      	add	sp, #28
 8001496:	e8bd 0f00 	ldmia.w	sp!, {r8, r9, sl, fp}
 800149a:	bdf0      	pop	{r4, r5, r6, r7, pc}
 800149c:	2500      	movs	r5, #0
 800149e:	45a9      	cmp	r9, r5
 80014a0:	d009      	beq.n	80014b6 <_ZN4core3fmt9Formatter12pad_integral17hcce0ba0935f0f978E+0x2be>
 80014a2:	f8d8 2010 	ldr.w	r2, [r8, #16]
 80014a6:	4620      	mov	r0, r4
 80014a8:	4631      	mov	r1, r6
 80014aa:	4790      	blx	r2
 80014ac:	3501      	adds	r5, #1
 80014ae:	2800      	cmp	r0, #0
 80014b0:	d0f5      	beq.n	800149e <_ZN4core3fmt9Formatter12pad_integral17hcce0ba0935f0f978E+0x2a6>
 80014b2:	1e69      	subs	r1, r5, #1
 80014b4:	e000      	b.n	80014b8 <_ZN4core3fmt9Formatter12pad_integral17hcce0ba0935f0f978E+0x2c0>
 80014b6:	4649      	mov	r1, r9
 80014b8:	2000      	movs	r0, #0
 80014ba:	4549      	cmp	r1, r9
 80014bc:	bf38      	it	cc
 80014be:	2001      	movcc	r0, #1
 80014c0:	b007      	add	sp, #28
 80014c2:	e8bd 0f00 	ldmia.w	sp!, {r8, r9, sl, fp}
 80014c6:	bdf0      	pop	{r4, r5, r6, r7, pc}

080014c8 <_ZN4core3fmt9Formatter12pad_integral12write_prefix17h2245a2129ac7bc92E>:
 80014c8:	b5f0      	push	{r4, r5, r6, r7, lr}
 80014ca:	af03      	add	r7, sp, #12
 80014cc:	f84d 8d04 	str.w	r8, [sp, #-4]!
 80014d0:	f8d7 8008 	ldr.w	r8, [r7, #8]
 80014d4:	461c      	mov	r4, r3
 80014d6:	460e      	mov	r6, r1
 80014d8:	f5b2 1f88 	cmp.w	r2, #1114112	; 0x110000
 80014dc:	d00a      	beq.n	80014f4 <_ZN4core3fmt9Formatter12pad_integral12write_prefix17h2245a2129ac7bc92E+0x2c>
 80014de:	6933      	ldr	r3, [r6, #16]
 80014e0:	4611      	mov	r1, r2
 80014e2:	4605      	mov	r5, r0
 80014e4:	4798      	blx	r3
 80014e6:	4601      	mov	r1, r0
 80014e8:	4628      	mov	r0, r5
 80014ea:	b119      	cbz	r1, 80014f4 <_ZN4core3fmt9Formatter12pad_integral12write_prefix17h2245a2129ac7bc92E+0x2c>
 80014ec:	2001      	movs	r0, #1
 80014ee:	f85d 8b04 	ldr.w	r8, [sp], #4
 80014f2:	bdf0      	pop	{r4, r5, r6, r7, pc}
 80014f4:	b13c      	cbz	r4, 8001506 <_ZN4core3fmt9Formatter12pad_integral12write_prefix17h2245a2129ac7bc92E+0x3e>
 80014f6:	68f3      	ldr	r3, [r6, #12]
 80014f8:	4621      	mov	r1, r4
 80014fa:	4642      	mov	r2, r8
 80014fc:	f85d 8b04 	ldr.w	r8, [sp], #4
 8001500:	e8bd 40f0 	ldmia.w	sp!, {r4, r5, r6, r7, lr}
 8001504:	4718      	bx	r3
 8001506:	2000      	movs	r0, #0
 8001508:	f85d 8b04 	ldr.w	r8, [sp], #4
 800150c:	bdf0      	pop	{r4, r5, r6, r7, pc}
 800150e:	d4d4      	bmi.n	80014ba <_ZN4core3fmt9Formatter12pad_integral17hcce0ba0935f0f978E+0x2c2>

08001510 <_ZN4core3fmt9Formatter3pad17heb5a640d5fd99738E>:
 8001510:	b5f0      	push	{r4, r5, r6, r7, lr}
 8001512:	af03      	add	r7, sp, #12
 8001514:	e92d 0f00 	stmdb	sp!, {r8, r9, sl, fp}
 8001518:	b081      	sub	sp, #4
 800151a:	4688      	mov	r8, r1
 800151c:	f8d0 c000 	ldr.w	ip, [r0]
 8001520:	6881      	ldr	r1, [r0, #8]
 8001522:	ea5c 0301 	orrs.w	r3, ip, r1
 8001526:	d102      	bne.n	800152e <_ZN4core3fmt9Formatter3pad17heb5a640d5fd99738E+0x1e>
 8001528:	e9d0 0105 	ldrd	r0, r1, [r0, #20]
 800152c:	e0b2      	b.n	8001694 <_ZN4core3fmt9Formatter3pad17heb5a640d5fd99738E+0x184>
 800152e:	b381      	cbz	r1, 8001592 <_ZN4core3fmt9Formatter3pad17heb5a640d5fd99738E+0x82>
 8001530:	68c6      	ldr	r6, [r0, #12]
 8001532:	eb08 0e02 	add.w	lr, r8, r2
 8001536:	f04f 0900 	mov.w	r9, #0
 800153a:	4641      	mov	r1, r8
 800153c:	b9e6      	cbnz	r6, 8001578 <_ZN4core3fmt9Formatter3pad17heb5a640d5fd99738E+0x68>
 800153e:	4571      	cmp	r1, lr
 8001540:	d027      	beq.n	8001592 <_ZN4core3fmt9Formatter3pad17heb5a640d5fd99738E+0x82>
 8001542:	f991 1000 	ldrsb.w	r1, [r1]
 8001546:	f1b1 3fff 	cmp.w	r1, #4294967295	; 0xffffffff
 800154a:	bfdc      	itt	le
 800154c:	b2c9      	uxtble	r1, r1
 800154e:	29e0      	cmple	r1, #224	; 0xe0
 8001550:	f1b9 0f00 	cmp.w	r9, #0
 8001554:	d023      	beq.n	800159e <_ZN4core3fmt9Formatter3pad17heb5a640d5fd99738E+0x8e>
 8001556:	4591      	cmp	r9, r2
 8001558:	d220      	bcs.n	800159c <_ZN4core3fmt9Formatter3pad17heb5a640d5fd99738E+0x8c>
 800155a:	f918 1009 	ldrsb.w	r1, [r8, r9]
 800155e:	f111 0f41 	cmn.w	r1, #65	; 0x41
 8001562:	dc1c      	bgt.n	800159e <_ZN4core3fmt9Formatter3pad17heb5a640d5fd99738E+0x8e>
 8001564:	2100      	movs	r1, #0
 8001566:	e01b      	b.n	80015a0 <_ZN4core3fmt9Formatter3pad17heb5a640d5fd99738E+0x90>
 8001568:	29f0      	cmp	r1, #240	; 0xf0
 800156a:	bf2c      	ite	cs
 800156c:	1d21      	addcs	r1, r4, #4
 800156e:	1ce1      	addcc	r1, r4, #3
 8001570:	1b0b      	subs	r3, r1, r4
 8001572:	3e01      	subs	r6, #1
 8001574:	4499      	add	r9, r3
 8001576:	d0e2      	beq.n	800153e <_ZN4core3fmt9Formatter3pad17heb5a640d5fd99738E+0x2e>
 8001578:	4571      	cmp	r1, lr
 800157a:	d00a      	beq.n	8001592 <_ZN4core3fmt9Formatter3pad17heb5a640d5fd99738E+0x82>
 800157c:	460c      	mov	r4, r1
 800157e:	f911 3b01 	ldrsb.w	r3, [r1], #1
 8001582:	f1b3 3fff 	cmp.w	r3, #4294967295	; 0xffffffff
 8001586:	dcf3      	bgt.n	8001570 <_ZN4core3fmt9Formatter3pad17heb5a640d5fd99738E+0x60>
 8001588:	b2d9      	uxtb	r1, r3
 800158a:	29e0      	cmp	r1, #224	; 0xe0
 800158c:	d2ec      	bcs.n	8001568 <_ZN4core3fmt9Formatter3pad17heb5a640d5fd99738E+0x58>
 800158e:	1ca1      	adds	r1, r4, #2
 8001590:	e7ee      	b.n	8001570 <_ZN4core3fmt9Formatter3pad17heb5a640d5fd99738E+0x60>
 8001592:	4691      	mov	r9, r2
 8001594:	f1bc 0f00 	cmp.w	ip, #0
 8001598:	d109      	bne.n	80015ae <_ZN4core3fmt9Formatter3pad17heb5a640d5fd99738E+0x9e>
 800159a:	e078      	b.n	800168e <_ZN4core3fmt9Formatter3pad17heb5a640d5fd99738E+0x17e>
 800159c:	d1e2      	bne.n	8001564 <_ZN4core3fmt9Formatter3pad17heb5a640d5fd99738E+0x54>
 800159e:	4641      	mov	r1, r8
 80015a0:	2900      	cmp	r1, #0
 80015a2:	bf0c      	ite	eq
 80015a4:	4691      	moveq	r9, r2
 80015a6:	4688      	movne	r8, r1
 80015a8:	f1bc 0f00 	cmp.w	ip, #0
 80015ac:	d06f      	beq.n	800168e <_ZN4core3fmt9Formatter3pad17heb5a640d5fd99738E+0x17e>
 80015ae:	f8d0 b004 	ldr.w	fp, [r0, #4]
 80015b2:	f1b9 0f10 	cmp.w	r9, #16
 80015b6:	d235      	bcs.n	8001624 <_ZN4core3fmt9Formatter3pad17heb5a640d5fd99738E+0x114>
 80015b8:	f1b9 0f00 	cmp.w	r9, #0
 80015bc:	d03a      	beq.n	8001634 <_ZN4core3fmt9Formatter3pad17heb5a640d5fd99738E+0x124>
 80015be:	f009 0c03 	and.w	ip, r9, #3
 80015c2:	ea5f 0299 	movs.w	r2, r9, lsr #2
 80015c6:	f04f 0100 	mov.w	r1, #0
 80015ca:	d035      	beq.n	8001638 <_ZN4core3fmt9Formatter3pad17heb5a640d5fd99738E+0x128>
 80015cc:	f002 0203 	and.w	r2, r2, #3
 80015d0:	f108 0a01 	add.w	sl, r8, #1
 80015d4:	eba1 0e82 	sub.w	lr, r1, r2, lsl #2
 80015d8:	f06f 0203 	mvn.w	r2, #3
 80015dc:	eb0a 0402 	add.w	r4, sl, r2
 80015e0:	3204      	adds	r2, #4
 80015e2:	f994 6003 	ldrsb.w	r6, [r4, #3]
 80015e6:	f994 3006 	ldrsb.w	r3, [r4, #6]
 80015ea:	f994 5005 	ldrsb.w	r5, [r4, #5]
 80015ee:	f116 0f41 	cmn.w	r6, #65	; 0x41
 80015f2:	f994 4004 	ldrsb.w	r4, [r4, #4]
 80015f6:	bfc8      	it	gt
 80015f8:	3101      	addgt	r1, #1
 80015fa:	f114 0f41 	cmn.w	r4, #65	; 0x41
 80015fe:	bfc8      	it	gt
 8001600:	3101      	addgt	r1, #1
 8001602:	f115 0f41 	cmn.w	r5, #65	; 0x41
 8001606:	bfc8      	it	gt
 8001608:	3101      	addgt	r1, #1
 800160a:	f113 0f41 	cmn.w	r3, #65	; 0x41
 800160e:	eb0e 0302 	add.w	r3, lr, r2
 8001612:	bfc8      	it	gt
 8001614:	3101      	addgt	r1, #1
 8001616:	3304      	adds	r3, #4
 8001618:	d1e0      	bne.n	80015dc <_ZN4core3fmt9Formatter3pad17heb5a640d5fd99738E+0xcc>
 800161a:	3204      	adds	r2, #4
 800161c:	f1bc 0f00 	cmp.w	ip, #0
 8001620:	d10e      	bne.n	8001640 <_ZN4core3fmt9Formatter3pad17heb5a640d5fd99738E+0x130>
 8001622:	e026      	b.n	8001672 <_ZN4core3fmt9Formatter3pad17heb5a640d5fd99738E+0x162>
 8001624:	4606      	mov	r6, r0
 8001626:	4640      	mov	r0, r8
 8001628:	4649      	mov	r1, r9
 800162a:	f000 f88c 	bl	8001746 <_ZN4core3str5count14do_count_chars17h36d33959eb3204bdE>
 800162e:	4601      	mov	r1, r0
 8001630:	4630      	mov	r0, r6
 8001632:	e01e      	b.n	8001672 <_ZN4core3fmt9Formatter3pad17heb5a640d5fd99738E+0x162>
 8001634:	2100      	movs	r1, #0
 8001636:	e01c      	b.n	8001672 <_ZN4core3fmt9Formatter3pad17heb5a640d5fd99738E+0x162>
 8001638:	2200      	movs	r2, #0
 800163a:	f1bc 0f00 	cmp.w	ip, #0
 800163e:	d018      	beq.n	8001672 <_ZN4core3fmt9Formatter3pad17heb5a640d5fd99738E+0x162>
 8001640:	f918 3002 	ldrsb.w	r3, [r8, r2]
 8001644:	f113 0f41 	cmn.w	r3, #65	; 0x41
 8001648:	bfc8      	it	gt
 800164a:	3101      	addgt	r1, #1
 800164c:	f1bc 0f01 	cmp.w	ip, #1
 8001650:	d00f      	beq.n	8001672 <_ZN4core3fmt9Formatter3pad17heb5a640d5fd99738E+0x162>
 8001652:	4442      	add	r2, r8
 8001654:	f992 3001 	ldrsb.w	r3, [r2, #1]
 8001658:	f113 0f41 	cmn.w	r3, #65	; 0x41
 800165c:	bfc8      	it	gt
 800165e:	3101      	addgt	r1, #1
 8001660:	f1bc 0f02 	cmp.w	ip, #2
 8001664:	d005      	beq.n	8001672 <_ZN4core3fmt9Formatter3pad17heb5a640d5fd99738E+0x162>
 8001666:	f992 2002 	ldrsb.w	r2, [r2, #2]
 800166a:	f112 0f41 	cmn.w	r2, #65	; 0x41
 800166e:	bfc8      	it	gt
 8001670:	3101      	addgt	r1, #1
 8001672:	458b      	cmp	fp, r1
 8001674:	d90b      	bls.n	800168e <_ZN4core3fmt9Formatter3pad17heb5a640d5fd99738E+0x17e>
 8001676:	f890 2020 	ldrb.w	r2, [r0, #32]
 800167a:	ebab 0101 	sub.w	r1, fp, r1
 800167e:	2500      	movs	r5, #0
 8001680:	e8df f002 	tbb	[pc, r2]
 8001684:	13100213 	.word	0x13100213
 8001688:	460d      	mov	r5, r1
 800168a:	2100      	movs	r1, #0
 800168c:	e00d      	b.n	80016aa <_ZN4core3fmt9Formatter3pad17heb5a640d5fd99738E+0x19a>
 800168e:	e9d0 0105 	ldrd	r0, r1, [r0, #20]
 8001692:	464a      	mov	r2, r9
 8001694:	68cb      	ldr	r3, [r1, #12]
 8001696:	4641      	mov	r1, r8
 8001698:	b001      	add	sp, #4
 800169a:	e8bd 0f00 	ldmia.w	sp!, {r8, r9, sl, fp}
 800169e:	e8bd 40f0 	ldmia.w	sp!, {r4, r5, r6, r7, lr}
 80016a2:	4718      	bx	r3
 80016a4:	1c4a      	adds	r2, r1, #1
 80016a6:	084d      	lsrs	r5, r1, #1
 80016a8:	0851      	lsrs	r1, r2, #1
 80016aa:	e9d0 ab04 	ldrd	sl, fp, [r0, #16]
 80016ae:	1c6c      	adds	r4, r5, #1
 80016b0:	6986      	ldr	r6, [r0, #24]
 80016b2:	9100      	str	r1, [sp, #0]
 80016b4:	3c01      	subs	r4, #1
 80016b6:	d006      	beq.n	80016c6 <_ZN4core3fmt9Formatter3pad17heb5a640d5fd99738E+0x1b6>
 80016b8:	6932      	ldr	r2, [r6, #16]
 80016ba:	4658      	mov	r0, fp
 80016bc:	4651      	mov	r1, sl
 80016be:	4790      	blx	r2
 80016c0:	2800      	cmp	r0, #0
 80016c2:	d0f7      	beq.n	80016b4 <_ZN4core3fmt9Formatter3pad17heb5a640d5fd99738E+0x1a4>
 80016c4:	e005      	b.n	80016d2 <_ZN4core3fmt9Formatter3pad17heb5a640d5fd99738E+0x1c2>
 80016c6:	68f3      	ldr	r3, [r6, #12]
 80016c8:	4658      	mov	r0, fp
 80016ca:	4641      	mov	r1, r8
 80016cc:	464a      	mov	r2, r9
 80016ce:	4798      	blx	r3
 80016d0:	b120      	cbz	r0, 80016dc <_ZN4core3fmt9Formatter3pad17heb5a640d5fd99738E+0x1cc>
 80016d2:	2001      	movs	r0, #1
 80016d4:	b001      	add	sp, #4
 80016d6:	e8bd 0f00 	ldmia.w	sp!, {r8, r9, sl, fp}
 80016da:	bdf0      	pop	{r4, r5, r6, r7, pc}
 80016dc:	9c00      	ldr	r4, [sp, #0]
 80016de:	2500      	movs	r5, #0
 80016e0:	42ac      	cmp	r4, r5
 80016e2:	d008      	beq.n	80016f6 <_ZN4core3fmt9Formatter3pad17heb5a640d5fd99738E+0x1e6>
 80016e4:	6932      	ldr	r2, [r6, #16]
 80016e6:	4658      	mov	r0, fp
 80016e8:	4651      	mov	r1, sl
 80016ea:	4790      	blx	r2
 80016ec:	3501      	adds	r5, #1
 80016ee:	2800      	cmp	r0, #0
 80016f0:	d0f6      	beq.n	80016e0 <_ZN4core3fmt9Formatter3pad17heb5a640d5fd99738E+0x1d0>
 80016f2:	1e69      	subs	r1, r5, #1
 80016f4:	e000      	b.n	80016f8 <_ZN4core3fmt9Formatter3pad17heb5a640d5fd99738E+0x1e8>
 80016f6:	4621      	mov	r1, r4
 80016f8:	2000      	movs	r0, #0
 80016fa:	42a1      	cmp	r1, r4
 80016fc:	bf38      	it	cc
 80016fe:	2001      	movcc	r0, #1
 8001700:	b001      	add	sp, #4
 8001702:	e8bd 0f00 	ldmia.w	sp!, {r8, r9, sl, fp}
 8001706:	bdf0      	pop	{r4, r5, r6, r7, pc}

08001708 <_ZN4core5slice5index26slice_start_index_len_fail17hc8f92d1ae4595efdE>:
 8001708:	b580      	push	{r7, lr}
 800170a:	466f      	mov	r7, sp
 800170c:	b08c      	sub	sp, #48	; 0x30
 800170e:	e9cd 0100 	strd	r0, r1, [sp]
 8001712:	2000      	movs	r0, #0
 8001714:	f242 712c 	movw	r1, #10028	; 0x272c
 8001718:	9006      	str	r0, [sp, #24]
 800171a:	2002      	movs	r0, #2
 800171c:	f6c0 0100 	movt	r1, #2048	; 0x800
 8001720:	9003      	str	r0, [sp, #12]
 8001722:	9005      	str	r0, [sp, #20]
 8001724:	a808      	add	r0, sp, #32
 8001726:	9102      	str	r1, [sp, #8]
 8001728:	a901      	add	r1, sp, #4
 800172a:	9004      	str	r0, [sp, #16]
 800172c:	f641 4091 	movw	r0, #7313	; 0x1c91
 8001730:	f6c0 0000 	movt	r0, #2048	; 0x800
 8001734:	e9cd 0109 	strd	r0, r1, [sp, #36]	; 0x24
 8001738:	4611      	mov	r1, r2
 800173a:	900b      	str	r0, [sp, #44]	; 0x2c
 800173c:	4668      	mov	r0, sp
 800173e:	9008      	str	r0, [sp, #32]
 8001740:	a802      	add	r0, sp, #8
 8001742:	f7ff fc45 	bl	8000fd0 <_ZN4core9panicking9panic_fmt17ha28037c9d7b27c20E>

08001746 <_ZN4core3str5count14do_count_chars17h36d33959eb3204bdE>:
 8001746:	b5f0      	push	{r4, r5, r6, r7, lr}
 8001748:	af03      	add	r7, sp, #12
 800174a:	e92d 0f00 	stmdb	sp!, {r8, r9, sl, fp}
 800174e:	b082      	sub	sp, #8
 8001750:	4681      	mov	r9, r0
 8001752:	3003      	adds	r0, #3
 8001754:	f020 0a03 	bic.w	sl, r0, #3
 8001758:	ebaa 0809 	sub.w	r8, sl, r9
 800175c:	4541      	cmp	r1, r8
 800175e:	d30a      	bcc.n	8001776 <_ZN4core3str5count14do_count_chars17h36d33959eb3204bdE+0x30>
 8001760:	eba1 0e08 	sub.w	lr, r1, r8
 8001764:	ea5f 0c9e 	movs.w	ip, lr, lsr #2
 8001768:	d005      	beq.n	8001776 <_ZN4core3str5count14do_count_chars17h36d33959eb3204bdE+0x30>
 800176a:	f00e 0203 	and.w	r2, lr, #3
 800176e:	45ca      	cmp	sl, r9
 8001770:	d15a      	bne.n	8001828 <_ZN4core3str5count14do_count_chars17h36d33959eb3204bdE+0xe2>
 8001772:	2000      	movs	r0, #0
 8001774:	e0a0      	b.n	80018b8 <_ZN4core3str5count14do_count_chars17h36d33959eb3204bdE+0x172>
 8001776:	b389      	cbz	r1, 80017dc <_ZN4core3str5count14do_count_chars17h36d33959eb3204bdE+0x96>
 8001778:	f001 0c03 	and.w	ip, r1, #3
 800177c:	088a      	lsrs	r2, r1, #2
 800177e:	f04f 0000 	mov.w	r0, #0
 8001782:	d030      	beq.n	80017e6 <_ZN4core3str5count14do_count_chars17h36d33959eb3204bdE+0xa0>
 8001784:	eba0 0e82 	sub.w	lr, r0, r2, lsl #2
 8001788:	f109 0601 	add.w	r6, r9, #1
 800178c:	f06f 0503 	mvn.w	r5, #3
 8001790:	1973      	adds	r3, r6, r5
 8001792:	3504      	adds	r5, #4
 8001794:	f993 1003 	ldrsb.w	r1, [r3, #3]
 8001798:	f993 4006 	ldrsb.w	r4, [r3, #6]
 800179c:	f993 2005 	ldrsb.w	r2, [r3, #5]
 80017a0:	f111 0f41 	cmn.w	r1, #65	; 0x41
 80017a4:	f993 3004 	ldrsb.w	r3, [r3, #4]
 80017a8:	bfc8      	it	gt
 80017aa:	3001      	addgt	r0, #1
 80017ac:	eb0e 0105 	add.w	r1, lr, r5
 80017b0:	f113 0f41 	cmn.w	r3, #65	; 0x41
 80017b4:	bfc8      	it	gt
 80017b6:	3001      	addgt	r0, #1
 80017b8:	f112 0f41 	cmn.w	r2, #65	; 0x41
 80017bc:	bfc8      	it	gt
 80017be:	3001      	addgt	r0, #1
 80017c0:	f114 0f41 	cmn.w	r4, #65	; 0x41
 80017c4:	bfc8      	it	gt
 80017c6:	3001      	addgt	r0, #1
 80017c8:	3104      	adds	r1, #4
 80017ca:	d1e1      	bne.n	8001790 <_ZN4core3str5count14do_count_chars17h36d33959eb3204bdE+0x4a>
 80017cc:	1d2a      	adds	r2, r5, #4
 80017ce:	f1bc 0f00 	cmp.w	ip, #0
 80017d2:	d10c      	bne.n	80017ee <_ZN4core3str5count14do_count_chars17h36d33959eb3204bdE+0xa8>
 80017d4:	b002      	add	sp, #8
 80017d6:	e8bd 0f00 	ldmia.w	sp!, {r8, r9, sl, fp}
 80017da:	bdf0      	pop	{r4, r5, r6, r7, pc}
 80017dc:	2000      	movs	r0, #0
 80017de:	b002      	add	sp, #8
 80017e0:	e8bd 0f00 	ldmia.w	sp!, {r8, r9, sl, fp}
 80017e4:	bdf0      	pop	{r4, r5, r6, r7, pc}
 80017e6:	2200      	movs	r2, #0
 80017e8:	f1bc 0f00 	cmp.w	ip, #0
 80017ec:	d0f2      	beq.n	80017d4 <_ZN4core3str5count14do_count_chars17h36d33959eb3204bdE+0x8e>
 80017ee:	f919 1002 	ldrsb.w	r1, [r9, r2]
 80017f2:	f111 0f41 	cmn.w	r1, #65	; 0x41
 80017f6:	bfc8      	it	gt
 80017f8:	3001      	addgt	r0, #1
 80017fa:	f1bc 0f01 	cmp.w	ip, #1
 80017fe:	d0e9      	beq.n	80017d4 <_ZN4core3str5count14do_count_chars17h36d33959eb3204bdE+0x8e>
 8001800:	444a      	add	r2, r9
 8001802:	f992 1001 	ldrsb.w	r1, [r2, #1]
 8001806:	f111 0f41 	cmn.w	r1, #65	; 0x41
 800180a:	bfc8      	it	gt
 800180c:	3001      	addgt	r0, #1
 800180e:	f1bc 0f02 	cmp.w	ip, #2
 8001812:	d0df      	beq.n	80017d4 <_ZN4core3str5count14do_count_chars17h36d33959eb3204bdE+0x8e>
 8001814:	f992 1002 	ldrsb.w	r1, [r2, #2]
 8001818:	f111 0f41 	cmn.w	r1, #65	; 0x41
 800181c:	bfc8      	it	gt
 800181e:	3001      	addgt	r0, #1
 8001820:	b002      	add	sp, #8
 8001822:	e8bd 0f00 	ldmia.w	sp!, {r8, r9, sl, fp}
 8001826:	bdf0      	pop	{r4, r5, r6, r7, pc}
 8001828:	eba9 000a 	sub.w	r0, r9, sl
 800182c:	f110 0f04 	cmn.w	r0, #4
 8001830:	d902      	bls.n	8001838 <_ZN4core3str5count14do_count_chars17h36d33959eb3204bdE+0xf2>
 8001832:	2000      	movs	r0, #0
 8001834:	2500      	movs	r5, #0
 8001836:	e023      	b.n	8001880 <_ZN4core3str5count14do_count_chars17h36d33959eb3204bdE+0x13a>
 8001838:	f109 0b01 	add.w	fp, r9, #1
 800183c:	2000      	movs	r0, #0
 800183e:	f06f 0603 	mvn.w	r6, #3
 8001842:	eb0b 0506 	add.w	r5, fp, r6
 8001846:	f995 4003 	ldrsb.w	r4, [r5, #3]
 800184a:	f995 3006 	ldrsb.w	r3, [r5, #6]
 800184e:	f995 1005 	ldrsb.w	r1, [r5, #5]
 8001852:	f114 0f41 	cmn.w	r4, #65	; 0x41
 8001856:	f995 5004 	ldrsb.w	r5, [r5, #4]
 800185a:	bfc8      	it	gt
 800185c:	3001      	addgt	r0, #1
 800185e:	f115 0f41 	cmn.w	r5, #65	; 0x41
 8001862:	bfc8      	it	gt
 8001864:	3001      	addgt	r0, #1
 8001866:	f111 0f41 	cmn.w	r1, #65	; 0x41
 800186a:	bfc8      	it	gt
 800186c:	3001      	addgt	r0, #1
 800186e:	f113 0f41 	cmn.w	r3, #65	; 0x41
 8001872:	bfc8      	it	gt
 8001874:	3001      	addgt	r0, #1
 8001876:	f116 0508 	adds.w	r5, r6, #8
 800187a:	f106 0604 	add.w	r6, r6, #4
 800187e:	d1e0      	bne.n	8001842 <_ZN4core3str5count14do_count_chars17h36d33959eb3204bdE+0xfc>
 8001880:	45ca      	cmp	sl, r9
 8001882:	d019      	beq.n	80018b8 <_ZN4core3str5count14do_count_chars17h36d33959eb3204bdE+0x172>
 8001884:	f919 1005 	ldrsb.w	r1, [r9, r5]
 8001888:	f111 0f41 	cmn.w	r1, #65	; 0x41
 800188c:	bfc8      	it	gt
 800188e:	3001      	addgt	r0, #1
 8001890:	f1b8 0f01 	cmp.w	r8, #1
 8001894:	d010      	beq.n	80018b8 <_ZN4core3str5count14do_count_chars17h36d33959eb3204bdE+0x172>
 8001896:	eb09 0105 	add.w	r1, r9, r5
 800189a:	f991 3001 	ldrsb.w	r3, [r1, #1]
 800189e:	f113 0f41 	cmn.w	r3, #65	; 0x41
 80018a2:	bfc8      	it	gt
 80018a4:	3001      	addgt	r0, #1
 80018a6:	f1b8 0f02 	cmp.w	r8, #2
 80018aa:	d005      	beq.n	80018b8 <_ZN4core3str5count14do_count_chars17h36d33959eb3204bdE+0x172>
 80018ac:	f991 1002 	ldrsb.w	r1, [r1, #2]
 80018b0:	f111 0f41 	cmn.w	r1, #65	; 0x41
 80018b4:	bfc8      	it	gt
 80018b6:	3001      	addgt	r0, #1
 80018b8:	eb09 0408 	add.w	r4, r9, r8
 80018bc:	2300      	movs	r3, #0
 80018be:	b1c2      	cbz	r2, 80018f2 <_ZN4core3str5count14do_count_chars17h36d33959eb3204bdE+0x1ac>
 80018c0:	f02e 0103 	bic.w	r1, lr, #3
 80018c4:	4421      	add	r1, r4
 80018c6:	f991 6000 	ldrsb.w	r6, [r1]
 80018ca:	f116 0f41 	cmn.w	r6, #65	; 0x41
 80018ce:	bfc8      	it	gt
 80018d0:	2301      	movgt	r3, #1
 80018d2:	2a01      	cmp	r2, #1
 80018d4:	d00d      	beq.n	80018f2 <_ZN4core3str5count14do_count_chars17h36d33959eb3204bdE+0x1ac>
 80018d6:	f991 6001 	ldrsb.w	r6, [r1, #1]
 80018da:	f116 0f41 	cmn.w	r6, #65	; 0x41
 80018de:	bfc8      	it	gt
 80018e0:	3301      	addgt	r3, #1
 80018e2:	2a02      	cmp	r2, #2
 80018e4:	d005      	beq.n	80018f2 <_ZN4core3str5count14do_count_chars17h36d33959eb3204bdE+0x1ac>
 80018e6:	f991 1002 	ldrsb.w	r1, [r1, #2]
 80018ea:	f111 0f41 	cmn.w	r1, #65	; 0x41
 80018ee:	bfc8      	it	gt
 80018f0:	3301      	addgt	r3, #1
 80018f2:	4418      	add	r0, r3
 80018f4:	f06f 090f 	mvn.w	r9, #15
 80018f8:	e012      	b.n	8001920 <_ZN4core3str5count14do_count_chars17h36d33959eb3204bdE+0x1da>
 80018fa:	f04f 0800 	mov.w	r8, #0
 80018fe:	fa3f f288 	uxtb16	r2, r8
 8001902:	fa3f f398 	uxtb16	r3, r8, ror #8
 8001906:	441a      	add	r2, r3
 8001908:	ebac 0c0b 	sub.w	ip, ip, fp
 800190c:	eb0a 048b 	add.w	r4, sl, fp, lsl #2
 8001910:	f01b 0103 	ands.w	r1, fp, #3
 8001914:	eb02 4202 	add.w	r2, r2, r2, lsl #16
 8001918:	eb00 4012 	add.w	r0, r0, r2, lsr #16
 800191c:	f040 814e 	bne.w	8001bbc <_ZN4core3str5count14do_count_chars17h36d33959eb3204bdE+0x476>
 8001920:	f1bc 0f00 	cmp.w	ip, #0
 8001924:	f43f af56 	beq.w	80017d4 <_ZN4core3str5count14do_count_chars17h36d33959eb3204bdE+0x8e>
 8001928:	f1bc 0fc0 	cmp.w	ip, #192	; 0xc0
 800192c:	46e3      	mov	fp, ip
 800192e:	bf28      	it	cs
 8001930:	f04f 0bc0 	movcs.w	fp, #192	; 0xc0
 8001934:	46a2      	mov	sl, r4
 8001936:	f1bc 0f04 	cmp.w	ip, #4
 800193a:	d3de      	bcc.n	80018fa <_ZN4core3str5count14do_count_chars17h36d33959eb3204bdE+0x1b4>
 800193c:	eb09 018b 	add.w	r1, r9, fp, lsl #2
 8001940:	2201      	movs	r2, #1
 8001942:	2930      	cmp	r1, #48	; 0x30
 8001944:	eb02 1211 	add.w	r2, r2, r1, lsr #4
 8001948:	d207      	bcs.n	800195a <_ZN4core3str5count14do_count_chars17h36d33959eb3204bdE+0x214>
 800194a:	f04f 0800 	mov.w	r8, #0
 800194e:	4654      	mov	r4, sl
 8001950:	f012 0e03 	ands.w	lr, r2, #3
 8001954:	f040 80b9 	bne.w	8001aca <_ZN4core3str5count14do_count_chars17h36d33959eb3204bdE+0x384>
 8001958:	e7d1      	b.n	80018fe <_ZN4core3str5count14do_count_chars17h36d33959eb3204bdE+0x1b8>
 800195a:	f022 0903 	bic.w	r9, r2, #3
 800195e:	f04f 0800 	mov.w	r8, #0
 8001962:	4654      	mov	r4, sl
 8001964:	9200      	str	r2, [sp, #0]
 8001966:	f8cd a004 	str.w	sl, [sp, #4]
 800196a:	e894 040e 	ldmia.w	r4, {r1, r2, r3, sl}
 800196e:	f1b9 0904 	subs.w	r9, r9, #4
 8001972:	69a6      	ldr	r6, [r4, #24]
 8001974:	ea6f 0e01 	mvn.w	lr, r1
 8001978:	ea4f 15de 	mov.w	r5, lr, lsr #7
 800197c:	ea45 1191 	orr.w	r1, r5, r1, lsr #6
 8001980:	ea6f 0502 	mvn.w	r5, r2
 8001984:	f021 31fe 	bic.w	r1, r1, #4278124286	; 0xfefefefe
 8001988:	ea4f 15d5 	mov.w	r5, r5, lsr #7
 800198c:	ea45 1292 	orr.w	r2, r5, r2, lsr #6
 8001990:	4441      	add	r1, r8
 8001992:	f022 32fe 	bic.w	r2, r2, #4278124286	; 0xfefefefe
 8001996:	440a      	add	r2, r1
 8001998:	ea6f 0103 	mvn.w	r1, r3
 800199c:	ea4f 15d1 	mov.w	r5, r1, lsr #7
 80019a0:	ea45 1393 	orr.w	r3, r5, r3, lsr #6
 80019a4:	f023 33fe 	bic.w	r3, r3, #4278124286	; 0xfefefefe
 80019a8:	6925      	ldr	r5, [r4, #16]
 80019aa:	441a      	add	r2, r3
 80019ac:	ea6f 030a 	mvn.w	r3, sl
 80019b0:	ea4f 13d3 	mov.w	r3, r3, lsr #7
 80019b4:	6961      	ldr	r1, [r4, #20]
 80019b6:	ea43 139a 	orr.w	r3, r3, sl, lsr #6
 80019ba:	f8d4 8038 	ldr.w	r8, [r4, #56]	; 0x38
 80019be:	f023 33fe 	bic.w	r3, r3, #4278124286	; 0xfefefefe
 80019c2:	f8d4 e03c 	ldr.w	lr, [r4, #60]	; 0x3c
 80019c6:	441a      	add	r2, r3
 80019c8:	ea6f 0305 	mvn.w	r3, r5
 80019cc:	ea4f 13d3 	mov.w	r3, r3, lsr #7
 80019d0:	ea43 1395 	orr.w	r3, r3, r5, lsr #6
 80019d4:	69e5      	ldr	r5, [r4, #28]
 80019d6:	f023 33fe 	bic.w	r3, r3, #4278124286	; 0xfefefefe
 80019da:	441a      	add	r2, r3
 80019dc:	ea6f 0301 	mvn.w	r3, r1
 80019e0:	ea4f 13d3 	mov.w	r3, r3, lsr #7
 80019e4:	ea43 1191 	orr.w	r1, r3, r1, lsr #6
 80019e8:	f021 31fe 	bic.w	r1, r1, #4278124286	; 0xfefefefe
 80019ec:	6a23      	ldr	r3, [r4, #32]
 80019ee:	4411      	add	r1, r2
 80019f0:	ea6f 0206 	mvn.w	r2, r6
 80019f4:	ea4f 12d2 	mov.w	r2, r2, lsr #7
 80019f8:	ea42 1296 	orr.w	r2, r2, r6, lsr #6
 80019fc:	6a66      	ldr	r6, [r4, #36]	; 0x24
 80019fe:	f022 32fe 	bic.w	r2, r2, #4278124286	; 0xfefefefe
 8001a02:	4411      	add	r1, r2
 8001a04:	ea6f 0205 	mvn.w	r2, r5
 8001a08:	ea4f 12d2 	mov.w	r2, r2, lsr #7
 8001a0c:	ea42 1295 	orr.w	r2, r2, r5, lsr #6
 8001a10:	6aa5      	ldr	r5, [r4, #40]	; 0x28
 8001a12:	f022 32fe 	bic.w	r2, r2, #4278124286	; 0xfefefefe
 8001a16:	4411      	add	r1, r2
 8001a18:	ea6f 0203 	mvn.w	r2, r3
 8001a1c:	ea4f 12d2 	mov.w	r2, r2, lsr #7
 8001a20:	ea42 1293 	orr.w	r2, r2, r3, lsr #6
 8001a24:	6ae3      	ldr	r3, [r4, #44]	; 0x2c
 8001a26:	f022 32fe 	bic.w	r2, r2, #4278124286	; 0xfefefefe
 8001a2a:	4411      	add	r1, r2
 8001a2c:	ea6f 0206 	mvn.w	r2, r6
 8001a30:	ea4f 12d2 	mov.w	r2, r2, lsr #7
 8001a34:	ea42 1296 	orr.w	r2, r2, r6, lsr #6
 8001a38:	6b26      	ldr	r6, [r4, #48]	; 0x30
 8001a3a:	f022 32fe 	bic.w	r2, r2, #4278124286	; 0xfefefefe
 8001a3e:	4411      	add	r1, r2
 8001a40:	ea6f 0205 	mvn.w	r2, r5
 8001a44:	ea4f 12d2 	mov.w	r2, r2, lsr #7
 8001a48:	ea42 1295 	orr.w	r2, r2, r5, lsr #6
 8001a4c:	6b65      	ldr	r5, [r4, #52]	; 0x34
 8001a4e:	f022 32fe 	bic.w	r2, r2, #4278124286	; 0xfefefefe
 8001a52:	f104 0440 	add.w	r4, r4, #64	; 0x40
 8001a56:	4411      	add	r1, r2
 8001a58:	ea6f 0203 	mvn.w	r2, r3
 8001a5c:	ea4f 12d2 	mov.w	r2, r2, lsr #7
 8001a60:	ea42 1293 	orr.w	r2, r2, r3, lsr #6
 8001a64:	f022 32fe 	bic.w	r2, r2, #4278124286	; 0xfefefefe
 8001a68:	4411      	add	r1, r2
 8001a6a:	ea6f 0206 	mvn.w	r2, r6
 8001a6e:	ea4f 12d2 	mov.w	r2, r2, lsr #7
 8001a72:	ea42 1296 	orr.w	r2, r2, r6, lsr #6
 8001a76:	f022 32fe 	bic.w	r2, r2, #4278124286	; 0xfefefefe
 8001a7a:	4411      	add	r1, r2
 8001a7c:	ea6f 0205 	mvn.w	r2, r5
 8001a80:	ea4f 12d2 	mov.w	r2, r2, lsr #7
 8001a84:	ea42 1295 	orr.w	r2, r2, r5, lsr #6
 8001a88:	f022 32fe 	bic.w	r2, r2, #4278124286	; 0xfefefefe
 8001a8c:	4411      	add	r1, r2
 8001a8e:	ea6f 0208 	mvn.w	r2, r8
 8001a92:	ea4f 12d2 	mov.w	r2, r2, lsr #7
 8001a96:	ea42 1298 	orr.w	r2, r2, r8, lsr #6
 8001a9a:	f022 32fe 	bic.w	r2, r2, #4278124286	; 0xfefefefe
 8001a9e:	4411      	add	r1, r2
 8001aa0:	ea6f 020e 	mvn.w	r2, lr
 8001aa4:	ea4f 12d2 	mov.w	r2, r2, lsr #7
 8001aa8:	ea42 129e 	orr.w	r2, r2, lr, lsr #6
 8001aac:	f022 32fe 	bic.w	r2, r2, #4278124286	; 0xfefefefe
 8001ab0:	eb02 0801 	add.w	r8, r2, r1
 8001ab4:	f47f af59 	bne.w	800196a <_ZN4core3str5count14do_count_chars17h36d33959eb3204bdE+0x224>
 8001ab8:	f8dd a004 	ldr.w	sl, [sp, #4]
 8001abc:	f06f 090f 	mvn.w	r9, #15
 8001ac0:	9a00      	ldr	r2, [sp, #0]
 8001ac2:	f012 0e03 	ands.w	lr, r2, #3
 8001ac6:	f43f af1a 	beq.w	80018fe <_ZN4core3str5count14do_count_chars17h36d33959eb3204bdE+0x1b8>
 8001aca:	e894 004c 	ldmia.w	r4, {r2, r3, r6}
 8001ace:	f1be 0f01 	cmp.w	lr, #1
 8001ad2:	68e5      	ldr	r5, [r4, #12]
 8001ad4:	ea6f 0102 	mvn.w	r1, r2
 8001ad8:	ea4f 11d1 	mov.w	r1, r1, lsr #7
 8001adc:	ea41 1192 	orr.w	r1, r1, r2, lsr #6
 8001ae0:	ea6f 0203 	mvn.w	r2, r3
 8001ae4:	ea4f 12d2 	mov.w	r2, r2, lsr #7
 8001ae8:	f021 31fe 	bic.w	r1, r1, #4278124286	; 0xfefefefe
 8001aec:	ea42 1293 	orr.w	r2, r2, r3, lsr #6
 8001af0:	4441      	add	r1, r8
 8001af2:	f022 32fe 	bic.w	r2, r2, #4278124286	; 0xfefefefe
 8001af6:	4411      	add	r1, r2
 8001af8:	ea6f 0206 	mvn.w	r2, r6
 8001afc:	ea4f 12d2 	mov.w	r2, r2, lsr #7
 8001b00:	ea42 1296 	orr.w	r2, r2, r6, lsr #6
 8001b04:	f022 32fe 	bic.w	r2, r2, #4278124286	; 0xfefefefe
 8001b08:	4411      	add	r1, r2
 8001b0a:	ea6f 0205 	mvn.w	r2, r5
 8001b0e:	ea4f 12d2 	mov.w	r2, r2, lsr #7
 8001b12:	ea42 1295 	orr.w	r2, r2, r5, lsr #6
 8001b16:	f022 32fe 	bic.w	r2, r2, #4278124286	; 0xfefefefe
 8001b1a:	eb02 0801 	add.w	r8, r2, r1
 8001b1e:	f43f aeee 	beq.w	80018fe <_ZN4core3str5count14do_count_chars17h36d33959eb3204bdE+0x1b8>
 8001b22:	f104 0510 	add.w	r5, r4, #16
 8001b26:	f1be 0f02 	cmp.w	lr, #2
 8001b2a:	cd2e      	ldmia	r5, {r1, r2, r3, r5}
 8001b2c:	ea6f 0601 	mvn.w	r6, r1
 8001b30:	ea4f 16d6 	mov.w	r6, r6, lsr #7
 8001b34:	ea46 1191 	orr.w	r1, r6, r1, lsr #6
 8001b38:	ea6f 0602 	mvn.w	r6, r2
 8001b3c:	f021 31fe 	bic.w	r1, r1, #4278124286	; 0xfefefefe
 8001b40:	ea4f 16d6 	mov.w	r6, r6, lsr #7
 8001b44:	ea46 1292 	orr.w	r2, r6, r2, lsr #6
 8001b48:	4441      	add	r1, r8
 8001b4a:	f022 32fe 	bic.w	r2, r2, #4278124286	; 0xfefefefe
 8001b4e:	4411      	add	r1, r2
 8001b50:	ea6f 0203 	mvn.w	r2, r3
 8001b54:	ea4f 12d2 	mov.w	r2, r2, lsr #7
 8001b58:	ea42 1293 	orr.w	r2, r2, r3, lsr #6
 8001b5c:	f022 32fe 	bic.w	r2, r2, #4278124286	; 0xfefefefe
 8001b60:	4411      	add	r1, r2
 8001b62:	ea6f 0205 	mvn.w	r2, r5
 8001b66:	ea4f 12d2 	mov.w	r2, r2, lsr #7
 8001b6a:	ea42 1295 	orr.w	r2, r2, r5, lsr #6
 8001b6e:	f022 32fe 	bic.w	r2, r2, #4278124286	; 0xfefefefe
 8001b72:	eb02 0801 	add.w	r8, r2, r1
 8001b76:	f43f aec2 	beq.w	80018fe <_ZN4core3str5count14do_count_chars17h36d33959eb3204bdE+0x1b8>
 8001b7a:	f104 0620 	add.w	r6, r4, #32
 8001b7e:	ce4e      	ldmia	r6, {r1, r2, r3, r6}
 8001b80:	43cd      	mvns	r5, r1
 8001b82:	09ed      	lsrs	r5, r5, #7
 8001b84:	ea45 1191 	orr.w	r1, r5, r1, lsr #6
 8001b88:	43d5      	mvns	r5, r2
 8001b8a:	f021 31fe 	bic.w	r1, r1, #4278124286	; 0xfefefefe
 8001b8e:	09ed      	lsrs	r5, r5, #7
 8001b90:	ea45 1292 	orr.w	r2, r5, r2, lsr #6
 8001b94:	4441      	add	r1, r8
 8001b96:	f022 32fe 	bic.w	r2, r2, #4278124286	; 0xfefefefe
 8001b9a:	4411      	add	r1, r2
 8001b9c:	43da      	mvns	r2, r3
 8001b9e:	09d2      	lsrs	r2, r2, #7
 8001ba0:	ea42 1293 	orr.w	r2, r2, r3, lsr #6
 8001ba4:	f022 32fe 	bic.w	r2, r2, #4278124286	; 0xfefefefe
 8001ba8:	4411      	add	r1, r2
 8001baa:	43f2      	mvns	r2, r6
 8001bac:	09d2      	lsrs	r2, r2, #7
 8001bae:	ea42 1296 	orr.w	r2, r2, r6, lsr #6
 8001bb2:	f022 32fe 	bic.w	r2, r2, #4278124286	; 0xfefefefe
 8001bb6:	eb02 0801 	add.w	r8, r2, r1
 8001bba:	e6a0      	b.n	80018fe <_ZN4core3str5count14do_count_chars17h36d33959eb3204bdE+0x1b8>
 8001bbc:	f00b 03fc 	and.w	r3, fp, #252	; 0xfc
 8001bc0:	2901      	cmp	r1, #1
 8001bc2:	f85a 2023 	ldr.w	r2, [sl, r3, lsl #2]
 8001bc6:	ea6f 0602 	mvn.w	r6, r2
 8001bca:	ea4f 16d6 	mov.w	r6, r6, lsr #7
 8001bce:	ea46 1292 	orr.w	r2, r6, r2, lsr #6
 8001bd2:	f022 32fe 	bic.w	r2, r2, #4278124286	; 0xfefefefe
 8001bd6:	d015      	beq.n	8001c04 <_ZN4core3str5count14do_count_chars17h36d33959eb3204bdE+0x4be>
 8001bd8:	eb0a 0383 	add.w	r3, sl, r3, lsl #2
 8001bdc:	2902      	cmp	r1, #2
 8001bde:	685e      	ldr	r6, [r3, #4]
 8001be0:	ea6f 0506 	mvn.w	r5, r6
 8001be4:	ea4f 15d5 	mov.w	r5, r5, lsr #7
 8001be8:	ea45 1696 	orr.w	r6, r5, r6, lsr #6
 8001bec:	f026 36fe 	bic.w	r6, r6, #4278124286	; 0xfefefefe
 8001bf0:	4432      	add	r2, r6
 8001bf2:	d007      	beq.n	8001c04 <_ZN4core3str5count14do_count_chars17h36d33959eb3204bdE+0x4be>
 8001bf4:	6899      	ldr	r1, [r3, #8]
 8001bf6:	43cb      	mvns	r3, r1
 8001bf8:	09db      	lsrs	r3, r3, #7
 8001bfa:	ea43 1191 	orr.w	r1, r3, r1, lsr #6
 8001bfe:	f021 31fe 	bic.w	r1, r1, #4278124286	; 0xfefefefe
 8001c02:	440a      	add	r2, r1
 8001c04:	fa3f f182 	uxtb16	r1, r2
 8001c08:	fa3f f292 	uxtb16	r2, r2, ror #8
 8001c0c:	4411      	add	r1, r2
 8001c0e:	eb01 4101 	add.w	r1, r1, r1, lsl #16
 8001c12:	eb00 4011 	add.w	r0, r0, r1, lsr #16
 8001c16:	b002      	add	sp, #8
 8001c18:	e8bd 0f00 	ldmia.w	sp!, {r8, r9, sl, fp}
 8001c1c:	bdf0      	pop	{r4, r5, r6, r7, pc}

08001c1e <_ZN4core9panicking11panic_const24panic_const_add_overflow17hfaa9a98b98f8d5acE>:
 8001c1e:	b580      	push	{r7, lr}
 8001c20:	466f      	mov	r7, sp
 8001c22:	b086      	sub	sp, #24
 8001c24:	4601      	mov	r1, r0
 8001c26:	2000      	movs	r0, #0
 8001c28:	2201      	movs	r2, #1
 8001c2a:	9004      	str	r0, [sp, #16]
 8001c2c:	9201      	str	r2, [sp, #4]
 8001c2e:	f242 528c 	movw	r2, #9612	; 0x258c
 8001c32:	9003      	str	r0, [sp, #12]
 8001c34:	2004      	movs	r0, #4
 8001c36:	f6c0 0200 	movt	r2, #2048	; 0x800
 8001c3a:	9002      	str	r0, [sp, #8]
 8001c3c:	4668      	mov	r0, sp
 8001c3e:	9200      	str	r2, [sp, #0]
 8001c40:	f7ff f9c6 	bl	8000fd0 <_ZN4core9panicking9panic_fmt17ha28037c9d7b27c20E>

08001c44 <_ZN4core9panicking11panic_const24panic_const_sub_overflow17h93979984e7c4c82aE>:
 8001c44:	b580      	push	{r7, lr}
 8001c46:	466f      	mov	r7, sp
 8001c48:	b086      	sub	sp, #24
 8001c4a:	4601      	mov	r1, r0
 8001c4c:	2000      	movs	r0, #0
 8001c4e:	2201      	movs	r2, #1
 8001c50:	9004      	str	r0, [sp, #16]
 8001c52:	9201      	str	r2, [sp, #4]
 8001c54:	f242 52b8 	movw	r2, #9656	; 0x25b8
 8001c58:	9003      	str	r0, [sp, #12]
 8001c5a:	2004      	movs	r0, #4
 8001c5c:	f6c0 0200 	movt	r2, #2048	; 0x800
 8001c60:	9002      	str	r0, [sp, #8]
 8001c62:	4668      	mov	r0, sp
 8001c64:	9200      	str	r2, [sp, #0]
 8001c66:	f7ff f9b3 	bl	8000fd0 <_ZN4core9panicking9panic_fmt17ha28037c9d7b27c20E>

08001c6a <_ZN4core9panicking11panic_const28panic_const_async_fn_resumed17h29f670e6743c79b2E>:
 8001c6a:	b580      	push	{r7, lr}
 8001c6c:	466f      	mov	r7, sp
 8001c6e:	b086      	sub	sp, #24
 8001c70:	4601      	mov	r1, r0
 8001c72:	2000      	movs	r0, #0
 8001c74:	2201      	movs	r2, #1
 8001c76:	9004      	str	r0, [sp, #16]
 8001c78:	9201      	str	r2, [sp, #4]
 8001c7a:	f242 7260 	movw	r2, #10080	; 0x2760
 8001c7e:	9003      	str	r0, [sp, #12]
 8001c80:	2004      	movs	r0, #4
 8001c82:	f6c0 0200 	movt	r2, #2048	; 0x800
 8001c86:	9002      	str	r0, [sp, #8]
 8001c88:	4668      	mov	r0, sp
 8001c8a:	9200      	str	r2, [sp, #0]
 8001c8c:	f7ff f9a0 	bl	8000fd0 <_ZN4core9panicking9panic_fmt17ha28037c9d7b27c20E>

08001c90 <_ZN4core3fmt3num3imp52_$LT$impl$u20$core..fmt..Display$u20$for$u20$u32$GT$3fmt17h6eedafd38d0c0a01E>:
 8001c90:	b5f0      	push	{r4, r5, r6, r7, lr}
 8001c92:	af03      	add	r7, sp, #12
 8001c94:	e92d 0f00 	stmdb	sp!, {r8, r9, sl, fp}
 8001c98:	b08d      	sub	sp, #52	; 0x34
 8001c9a:	6804      	ldr	r4, [r0, #0]
 8001c9c:	f242 6030 	movw	r0, #9776	; 0x2630
 8001ca0:	f242 7e10 	movw	lr, #10000	; 0x2710
 8001ca4:	460d      	mov	r5, r1
 8001ca6:	4574      	cmp	r4, lr
 8001ca8:	f6c0 0000 	movt	r0, #2048	; 0x800
 8001cac:	d33d      	bcc.n	8001d2a <_ZN4core3fmt3num3imp52_$LT$impl$u20$core..fmt..Display$u20$for$u20$u32$GT$3fmt17h6eedafd38d0c0a01E+0x9a>
 8001cae:	f241 7859 	movw	r8, #5977	; 0x1759
 8001cb2:	f24e 03ff 	movw	r3, #57599	; 0xe0ff
 8001cb6:	f1a7 0b43 	sub.w	fp, r7, #67	; 0x43
 8001cba:	2100      	movs	r1, #0
 8001cbc:	f2cd 18b7 	movt	r8, #53687	; 0xd1b7
 8001cc0:	f241 497b 	movw	r9, #5243	; 0x147b
 8001cc4:	f04f 0a64 	mov.w	sl, #100	; 0x64
 8001cc8:	f2c0 53f5 	movt	r3, #1525	; 0x5f5
 8001ccc:	9502      	str	r5, [sp, #8]
 8001cce:	fba4 2508 	umull	r2, r5, r4, r8
 8001cd2:	eb0b 0c01 	add.w	ip, fp, r1
 8001cd6:	3904      	subs	r1, #4
 8001cd8:	429c      	cmp	r4, r3
 8001cda:	ea4f 3255 	mov.w	r2, r5, lsr #13
 8001cde:	fb02 451e 	mls	r5, r2, lr, r4
 8001ce2:	4614      	mov	r4, r2
 8001ce4:	b2ae      	uxth	r6, r5
 8001ce6:	ea4f 0696 	mov.w	r6, r6, lsr #2
 8001cea:	fb06 f609 	mul.w	r6, r6, r9
 8001cee:	ea4f 4656 	mov.w	r6, r6, lsr #17
 8001cf2:	fb06 551a 	mls	r5, r6, sl, r5
 8001cf6:	f830 6016 	ldrh.w	r6, [r0, r6, lsl #1]
 8001cfa:	f8ac 6023 	strh.w	r6, [ip, #35]	; 0x23
 8001cfe:	b2ad      	uxth	r5, r5
 8001d00:	f830 5015 	ldrh.w	r5, [r0, r5, lsl #1]
 8001d04:	f8ac 5025 	strh.w	r5, [ip, #37]	; 0x25
 8001d08:	d8e1      	bhi.n	8001cce <_ZN4core3fmt3num3imp52_$LT$impl$u20$core..fmt..Display$u20$for$u20$u32$GT$3fmt17h6eedafd38d0c0a01E+0x3e>
 8001d0a:	9d02      	ldr	r5, [sp, #8]
 8001d0c:	f101 0327 	add.w	r3, r1, #39	; 0x27
 8001d10:	4614      	mov	r4, r2
 8001d12:	2c63      	cmp	r4, #99	; 0x63
 8001d14:	d80c      	bhi.n	8001d30 <_ZN4core3fmt3num3imp52_$LT$impl$u20$core..fmt..Display$u20$for$u20$u32$GT$3fmt17h6eedafd38d0c0a01E+0xa0>
 8001d16:	4621      	mov	r1, r4
 8001d18:	290a      	cmp	r1, #10
 8001d1a:	d31b      	bcc.n	8001d54 <_ZN4core3fmt3num3imp52_$LT$impl$u20$core..fmt..Display$u20$for$u20$u32$GT$3fmt17h6eedafd38d0c0a01E+0xc4>
 8001d1c:	f830 0011 	ldrh.w	r0, [r0, r1, lsl #1]
 8001d20:	1e9a      	subs	r2, r3, #2
 8001d22:	f1a7 0143 	sub.w	r1, r7, #67	; 0x43
 8001d26:	5288      	strh	r0, [r1, r2]
 8001d28:	e01a      	b.n	8001d60 <_ZN4core3fmt3num3imp52_$LT$impl$u20$core..fmt..Display$u20$for$u20$u32$GT$3fmt17h6eedafd38d0c0a01E+0xd0>
 8001d2a:	2327      	movs	r3, #39	; 0x27
 8001d2c:	2c63      	cmp	r4, #99	; 0x63
 8001d2e:	d9f2      	bls.n	8001d16 <_ZN4core3fmt3num3imp52_$LT$impl$u20$core..fmt..Display$u20$for$u20$u32$GT$3fmt17h6eedafd38d0c0a01E+0x86>
 8001d30:	b2a1      	uxth	r1, r4
 8001d32:	f241 427b 	movw	r2, #5243	; 0x147b
 8001d36:	0889      	lsrs	r1, r1, #2
 8001d38:	3b02      	subs	r3, #2
 8001d3a:	4351      	muls	r1, r2
 8001d3c:	2264      	movs	r2, #100	; 0x64
 8001d3e:	f1a7 0643 	sub.w	r6, r7, #67	; 0x43
 8001d42:	0c49      	lsrs	r1, r1, #17
 8001d44:	fb01 4212 	mls	r2, r1, r2, r4
 8001d48:	b292      	uxth	r2, r2
 8001d4a:	f830 2012 	ldrh.w	r2, [r0, r2, lsl #1]
 8001d4e:	52f2      	strh	r2, [r6, r3]
 8001d50:	290a      	cmp	r1, #10
 8001d52:	d2e3      	bcs.n	8001d1c <_ZN4core3fmt3num3imp52_$LT$impl$u20$core..fmt..Display$u20$for$u20$u32$GT$3fmt17h6eedafd38d0c0a01E+0x8c>
 8001d54:	f041 0030 	orr.w	r0, r1, #48	; 0x30
 8001d58:	1e5a      	subs	r2, r3, #1
 8001d5a:	f1a7 0143 	sub.w	r1, r7, #67	; 0x43
 8001d5e:	5488      	strb	r0, [r1, r2]
 8001d60:	f1c2 0027 	rsb	r0, r2, #39	; 0x27
 8001d64:	4411      	add	r1, r2
 8001d66:	2201      	movs	r2, #1
 8001d68:	2300      	movs	r3, #0
 8001d6a:	e9cd 1000 	strd	r1, r0, [sp]
 8001d6e:	4628      	mov	r0, r5
 8001d70:	2101      	movs	r1, #1
 8001d72:	f7ff fa41 	bl	80011f8 <_ZN4core3fmt9Formatter12pad_integral17hcce0ba0935f0f978E>
 8001d76:	b00d      	add	sp, #52	; 0x34
 8001d78:	e8bd 0f00 	ldmia.w	sp!, {r8, r9, sl, fp}
 8001d7c:	bdf0      	pop	{r4, r5, r6, r7, pc}

08001d7e <_ZN44_$LT$$RF$T$u20$as$u20$core..fmt..Display$GT$3fmt17h1a01f1f128bbf98fE>:
 8001d7e:	460b      	mov	r3, r1
 8001d80:	e9d0 1200 	ldrd	r1, r2, [r0]
 8001d84:	4618      	mov	r0, r3
 8001d86:	f7ff bbc3 	b.w	8001510 <_ZN4core3fmt9Formatter3pad17heb5a640d5fd99738E>

08001d8a <_ZN17compiler_builtins3mem6memcpy17he61df6a5d2739509E>:
 8001d8a:	b5f0      	push	{r4, r5, r6, r7, lr}
 8001d8c:	af03      	add	r7, sp, #12
 8001d8e:	e92d 0700 	stmdb	sp!, {r8, r9, sl}
 8001d92:	2a10      	cmp	r2, #16
 8001d94:	d363      	bcc.n	8001e5e <_ZN17compiler_builtins3mem6memcpy17he61df6a5d2739509E+0xd4>
 8001d96:	4243      	negs	r3, r0
 8001d98:	f013 0403 	ands.w	r4, r3, #3
 8001d9c:	eb00 0c04 	add.w	ip, r0, r4
 8001da0:	d016      	beq.n	8001dd0 <_ZN17compiler_builtins3mem6memcpy17he61df6a5d2739509E+0x46>
 8001da2:	4603      	mov	r3, r0
 8001da4:	460e      	mov	r6, r1
 8001da6:	7835      	ldrb	r5, [r6, #0]
 8001da8:	f803 5b01 	strb.w	r5, [r3], #1
 8001dac:	4563      	cmp	r3, ip
 8001dae:	d20f      	bcs.n	8001dd0 <_ZN17compiler_builtins3mem6memcpy17he61df6a5d2739509E+0x46>
 8001db0:	7875      	ldrb	r5, [r6, #1]
 8001db2:	f803 5b01 	strb.w	r5, [r3], #1
 8001db6:	4563      	cmp	r3, ip
 8001db8:	bf3e      	ittt	cc
 8001dba:	78b5      	ldrbcc	r5, [r6, #2]
 8001dbc:	f803 5b01 	strbcc.w	r5, [r3], #1
 8001dc0:	4563      	cmpcc	r3, ip
 8001dc2:	d205      	bcs.n	8001dd0 <_ZN17compiler_builtins3mem6memcpy17he61df6a5d2739509E+0x46>
 8001dc4:	78f5      	ldrb	r5, [r6, #3]
 8001dc6:	3604      	adds	r6, #4
 8001dc8:	f803 5b01 	strb.w	r5, [r3], #1
 8001dcc:	4563      	cmp	r3, ip
 8001dce:	d3ea      	bcc.n	8001da6 <_ZN17compiler_builtins3mem6memcpy17he61df6a5d2739509E+0x1c>
 8001dd0:	eba2 0e04 	sub.w	lr, r2, r4
 8001dd4:	eb01 0904 	add.w	r9, r1, r4
 8001dd8:	f02e 0803 	bic.w	r8, lr, #3
 8001ddc:	eb0c 0308 	add.w	r3, ip, r8
 8001de0:	ea5f 7189 	movs.w	r1, r9, lsl #30
 8001de4:	d03e      	beq.n	8001e64 <_ZN17compiler_builtins3mem6memcpy17he61df6a5d2739509E+0xda>
 8001de6:	f1b8 0f01 	cmp.w	r8, #1
 8001dea:	db54      	blt.n	8001e96 <_ZN17compiler_builtins3mem6memcpy17he61df6a5d2739509E+0x10c>
 8001dec:	2118      	movs	r1, #24
 8001dee:	f029 0203 	bic.w	r2, r9, #3
 8001df2:	ea01 0ac9 	and.w	sl, r1, r9, lsl #3
 8001df6:	ea4f 01c9 	mov.w	r1, r9, lsl #3
 8001dfa:	f102 0508 	add.w	r5, r2, #8
 8001dfe:	4249      	negs	r1, r1
 8001e00:	6812      	ldr	r2, [r2, #0]
 8001e02:	f001 0618 	and.w	r6, r1, #24
 8001e06:	f855 1c04 	ldr.w	r1, [r5, #-4]
 8001e0a:	fa22 f20a 	lsr.w	r2, r2, sl
 8001e0e:	fa01 f406 	lsl.w	r4, r1, r6
 8001e12:	4322      	orrs	r2, r4
 8001e14:	f84c 2b04 	str.w	r2, [ip], #4
 8001e18:	459c      	cmp	ip, r3
 8001e1a:	d23c      	bcs.n	8001e96 <_ZN17compiler_builtins3mem6memcpy17he61df6a5d2739509E+0x10c>
 8001e1c:	682a      	ldr	r2, [r5, #0]
 8001e1e:	fa21 f10a 	lsr.w	r1, r1, sl
 8001e22:	fa02 f406 	lsl.w	r4, r2, r6
 8001e26:	4321      	orrs	r1, r4
 8001e28:	f84c 1b04 	str.w	r1, [ip], #4
 8001e2c:	459c      	cmp	ip, r3
 8001e2e:	bf3f      	itttt	cc
 8001e30:	6869      	ldrcc	r1, [r5, #4]
 8001e32:	fa22 f20a 	lsrcc.w	r2, r2, sl
 8001e36:	fa01 f406 	lslcc.w	r4, r1, r6
 8001e3a:	4322      	orrcc	r2, r4
 8001e3c:	bf3c      	itt	cc
 8001e3e:	f84c 2b04 	strcc.w	r2, [ip], #4
 8001e42:	459c      	cmpcc	ip, r3
 8001e44:	d227      	bcs.n	8001e96 <_ZN17compiler_builtins3mem6memcpy17he61df6a5d2739509E+0x10c>
 8001e46:	68aa      	ldr	r2, [r5, #8]
 8001e48:	fa21 f10a 	lsr.w	r1, r1, sl
 8001e4c:	3510      	adds	r5, #16
 8001e4e:	fa02 f406 	lsl.w	r4, r2, r6
 8001e52:	4321      	orrs	r1, r4
 8001e54:	f84c 1b04 	str.w	r1, [ip], #4
 8001e58:	459c      	cmp	ip, r3
 8001e5a:	d3d4      	bcc.n	8001e06 <_ZN17compiler_builtins3mem6memcpy17he61df6a5d2739509E+0x7c>
 8001e5c:	e01b      	b.n	8001e96 <_ZN17compiler_builtins3mem6memcpy17he61df6a5d2739509E+0x10c>
 8001e5e:	4603      	mov	r3, r0
 8001e60:	b9f2      	cbnz	r2, 8001ea0 <_ZN17compiler_builtins3mem6memcpy17he61df6a5d2739509E+0x116>
 8001e62:	e033      	b.n	8001ecc <_ZN17compiler_builtins3mem6memcpy17he61df6a5d2739509E+0x142>
 8001e64:	f1b8 0f01 	cmp.w	r8, #1
 8001e68:	db15      	blt.n	8001e96 <_ZN17compiler_builtins3mem6memcpy17he61df6a5d2739509E+0x10c>
 8001e6a:	464c      	mov	r4, r9
 8001e6c:	6821      	ldr	r1, [r4, #0]
 8001e6e:	f84c 1b04 	str.w	r1, [ip], #4
 8001e72:	459c      	cmp	ip, r3
 8001e74:	d20f      	bcs.n	8001e96 <_ZN17compiler_builtins3mem6memcpy17he61df6a5d2739509E+0x10c>
 8001e76:	6861      	ldr	r1, [r4, #4]
 8001e78:	f84c 1b04 	str.w	r1, [ip], #4
 8001e7c:	459c      	cmp	ip, r3
 8001e7e:	bf3e      	ittt	cc
 8001e80:	68a1      	ldrcc	r1, [r4, #8]
 8001e82:	f84c 1b04 	strcc.w	r1, [ip], #4
 8001e86:	459c      	cmpcc	ip, r3
 8001e88:	d205      	bcs.n	8001e96 <_ZN17compiler_builtins3mem6memcpy17he61df6a5d2739509E+0x10c>
 8001e8a:	68e1      	ldr	r1, [r4, #12]
 8001e8c:	3410      	adds	r4, #16
 8001e8e:	f84c 1b04 	str.w	r1, [ip], #4
 8001e92:	459c      	cmp	ip, r3
 8001e94:	d3ea      	bcc.n	8001e6c <_ZN17compiler_builtins3mem6memcpy17he61df6a5d2739509E+0xe2>
 8001e96:	eb09 0108 	add.w	r1, r9, r8
 8001e9a:	f00e 0203 	and.w	r2, lr, #3
 8001e9e:	b1aa      	cbz	r2, 8001ecc <_ZN17compiler_builtins3mem6memcpy17he61df6a5d2739509E+0x142>
 8001ea0:	441a      	add	r2, r3
 8001ea2:	780e      	ldrb	r6, [r1, #0]
 8001ea4:	f803 6b01 	strb.w	r6, [r3], #1
 8001ea8:	4293      	cmp	r3, r2
 8001eaa:	d20f      	bcs.n	8001ecc <_ZN17compiler_builtins3mem6memcpy17he61df6a5d2739509E+0x142>
 8001eac:	784e      	ldrb	r6, [r1, #1]
 8001eae:	f803 6b01 	strb.w	r6, [r3], #1
 8001eb2:	4293      	cmp	r3, r2
 8001eb4:	bf3e      	ittt	cc
 8001eb6:	788e      	ldrbcc	r6, [r1, #2]
 8001eb8:	f803 6b01 	strbcc.w	r6, [r3], #1
 8001ebc:	4293      	cmpcc	r3, r2
 8001ebe:	d205      	bcs.n	8001ecc <_ZN17compiler_builtins3mem6memcpy17he61df6a5d2739509E+0x142>
 8001ec0:	78ce      	ldrb	r6, [r1, #3]
 8001ec2:	3104      	adds	r1, #4
 8001ec4:	f803 6b01 	strb.w	r6, [r3], #1
 8001ec8:	4293      	cmp	r3, r2
 8001eca:	d3ea      	bcc.n	8001ea2 <_ZN17compiler_builtins3mem6memcpy17he61df6a5d2739509E+0x118>
 8001ecc:	e8bd 0700 	ldmia.w	sp!, {r8, r9, sl}
 8001ed0:	bdf0      	pop	{r4, r5, r6, r7, pc}

08001ed2 <__aeabi_memcpy>:
 8001ed2:	f000 b800 	b.w	8001ed6 <_ZN17compiler_builtins3arm14__aeabi_memcpy17hea963eb20fc175baE>

08001ed6 <_ZN17compiler_builtins3arm14__aeabi_memcpy17hea963eb20fc175baE>:
 8001ed6:	f7ff bf58 	b.w	8001d8a <_ZN17compiler_builtins3mem6memcpy17he61df6a5d2739509E>

08001eda <_ZN17compiler_builtins3arm15__aeabi_memcpy417hca65a273d5983b7eE>:
 8001eda:	2a04      	cmp	r2, #4
 8001edc:	d318      	bcc.n	8001f10 <_ZN17compiler_builtins3arm15__aeabi_memcpy417hca65a273d5983b7eE+0x36>
 8001ede:	b5b0      	push	{r4, r5, r7, lr}
 8001ee0:	af02      	add	r7, sp, #8
 8001ee2:	f1a2 0e04 	sub.w	lr, r2, #4
 8001ee6:	2301      	movs	r3, #1
 8001ee8:	eb03 039e 	add.w	r3, r3, lr, lsr #2
 8001eec:	f013 0403 	ands.w	r4, r3, #3
 8001ef0:	d014      	beq.n	8001f1c <_ZN17compiler_builtins3arm15__aeabi_memcpy417hca65a273d5983b7eE+0x42>
 8001ef2:	468c      	mov	ip, r1
 8001ef4:	4603      	mov	r3, r0
 8001ef6:	f85c 5b04 	ldr.w	r5, [ip], #4
 8001efa:	2c01      	cmp	r4, #1
 8001efc:	f843 5b04 	str.w	r5, [r3], #4
 8001f00:	d115      	bne.n	8001f2e <_ZN17compiler_builtins3arm15__aeabi_memcpy417hca65a273d5983b7eE+0x54>
 8001f02:	4618      	mov	r0, r3
 8001f04:	4661      	mov	r1, ip
 8001f06:	4672      	mov	r2, lr
 8001f08:	f1be 0f0c 	cmp.w	lr, #12
 8001f0c:	d221      	bcs.n	8001f52 <_ZN17compiler_builtins3arm15__aeabi_memcpy417hca65a273d5983b7eE+0x78>
 8001f0e:	e008      	b.n	8001f22 <_ZN17compiler_builtins3arm15__aeabi_memcpy417hca65a273d5983b7eE+0x48>
 8001f10:	468c      	mov	ip, r1
 8001f12:	4603      	mov	r3, r0
 8001f14:	4618      	mov	r0, r3
 8001f16:	4661      	mov	r1, ip
 8001f18:	f7ff bfdd 	b.w	8001ed6 <_ZN17compiler_builtins3arm14__aeabi_memcpy17hea963eb20fc175baE>
 8001f1c:	f1be 0f0c 	cmp.w	lr, #12
 8001f20:	d217      	bcs.n	8001f52 <_ZN17compiler_builtins3arm15__aeabi_memcpy417hca65a273d5983b7eE+0x78>
 8001f22:	e8bd 40b0 	ldmia.w	sp!, {r4, r5, r7, lr}
 8001f26:	4618      	mov	r0, r3
 8001f28:	4661      	mov	r1, ip
 8001f2a:	f7ff bfd4 	b.w	8001ed6 <_ZN17compiler_builtins3arm14__aeabi_memcpy17hea963eb20fc175baE>
 8001f2e:	684b      	ldr	r3, [r1, #4]
 8001f30:	2c02      	cmp	r4, #2
 8001f32:	6043      	str	r3, [r0, #4]
 8001f34:	d103      	bne.n	8001f3e <_ZN17compiler_builtins3arm15__aeabi_memcpy417hca65a273d5983b7eE+0x64>
 8001f36:	3a08      	subs	r2, #8
 8001f38:	3108      	adds	r1, #8
 8001f3a:	3008      	adds	r0, #8
 8001f3c:	e004      	b.n	8001f48 <_ZN17compiler_builtins3arm15__aeabi_memcpy417hca65a273d5983b7eE+0x6e>
 8001f3e:	688b      	ldr	r3, [r1, #8]
 8001f40:	3a0c      	subs	r2, #12
 8001f42:	6083      	str	r3, [r0, #8]
 8001f44:	310c      	adds	r1, #12
 8001f46:	300c      	adds	r0, #12
 8001f48:	4603      	mov	r3, r0
 8001f4a:	468c      	mov	ip, r1
 8001f4c:	f1be 0f0c 	cmp.w	lr, #12
 8001f50:	d3e7      	bcc.n	8001f22 <_ZN17compiler_builtins3arm15__aeabi_memcpy417hca65a273d5983b7eE+0x48>
 8001f52:	680b      	ldr	r3, [r1, #0]
 8001f54:	3a10      	subs	r2, #16
 8001f56:	6003      	str	r3, [r0, #0]
 8001f58:	2a03      	cmp	r2, #3
 8001f5a:	684b      	ldr	r3, [r1, #4]
 8001f5c:	6043      	str	r3, [r0, #4]
 8001f5e:	688b      	ldr	r3, [r1, #8]
 8001f60:	6083      	str	r3, [r0, #8]
 8001f62:	68cb      	ldr	r3, [r1, #12]
 8001f64:	f101 0110 	add.w	r1, r1, #16
 8001f68:	60c3      	str	r3, [r0, #12]
 8001f6a:	f100 0010 	add.w	r0, r0, #16
 8001f6e:	d8f0      	bhi.n	8001f52 <_ZN17compiler_builtins3arm15__aeabi_memcpy417hca65a273d5983b7eE+0x78>
 8001f70:	468c      	mov	ip, r1
 8001f72:	4603      	mov	r3, r0
 8001f74:	e8bd 40b0 	ldmia.w	sp!, {r4, r5, r7, lr}
 8001f78:	4618      	mov	r0, r3
 8001f7a:	4661      	mov	r1, ip
 8001f7c:	f7ff bfab 	b.w	8001ed6 <_ZN17compiler_builtins3arm14__aeabi_memcpy17hea963eb20fc175baE>

08001f80 <__aeabi_memcpy4>:
 8001f80:	f7ff bfab 	b.w	8001eda <_ZN17compiler_builtins3arm15__aeabi_memcpy417hca65a273d5983b7eE>

08001f84 <HardFaultTrampoline>:
 8001f84:	4670      	mov	r0, lr
 8001f86:	2104      	movs	r1, #4
 8001f88:	4208      	tst	r0, r1
 8001f8a:	d102      	bne.n	8001f92 <HardFaultTrampoline+0xe>
 8001f8c:	f3ef 8008 	mrs	r0, MSP
 8001f90:	e002      	b.n	8001f98 <HardFault_>
 8001f92:	f3ef 8009 	mrs	r0, PSP
 8001f96:	e7ff      	b.n	8001f98 <HardFault_>

08001f98 <HardFault_>:
 8001f98:	e7fe      	b.n	8001f98 <HardFault_>
 8001f9a:	d4d4      	bmi.n	8001f46 <_ZN17compiler_builtins3arm15__aeabi_memcpy417hca65a273d5983b7eE+0x6c>
